
/home/merl/github_repos/azadi-sdk/softwares/plic_test/output/plic_test.merl:     file format elf32-littleriscv


Disassembly of section .init:

20000000 <_start>:
20000000:	00000297          	auipc	t0,0x0
20000004:	02c28293          	addi	t0,t0,44 # 2000002c <trap_entry>
20000008:	30529073          	csrw	mtvec,t0
2000000c:	f0000197          	auipc	gp,0xf0000
20000010:	ff418193          	addi	gp,gp,-12 # 10000000 <__global_pointer$>
20000014:	f0001117          	auipc	sp,0xf0001
20000018:	fec10113          	addi	sp,sp,-20 # 10001000 <__stack_top>
2000001c:	00010433          	add	s0,sp,zero
20000020:	7ed0006f          	j	2000100c <main>

Disassembly of section .text:

20000028 <_stext>:
20000028:	00000013          	nop

2000002c <trap_entry>:
2000002c:	f8010113          	addi	sp,sp,-128
20000030:	00112223          	sw	ra,4(sp)
20000034:	00212423          	sw	sp,8(sp)
20000038:	00312623          	sw	gp,12(sp)
2000003c:	00412823          	sw	tp,16(sp)
20000040:	00512a23          	sw	t0,20(sp)
20000044:	00612c23          	sw	t1,24(sp)
20000048:	00712e23          	sw	t2,28(sp)
2000004c:	02812023          	sw	s0,32(sp)
20000050:	02912223          	sw	s1,36(sp)
20000054:	02a12423          	sw	a0,40(sp)
20000058:	02b12623          	sw	a1,44(sp)
2000005c:	02c12823          	sw	a2,48(sp)
20000060:	02d12a23          	sw	a3,52(sp)
20000064:	02e12c23          	sw	a4,56(sp)
20000068:	02f12e23          	sw	a5,60(sp)
2000006c:	05012023          	sw	a6,64(sp)
20000070:	05112223          	sw	a7,68(sp)
20000074:	05212423          	sw	s2,72(sp)
20000078:	05312623          	sw	s3,76(sp)
2000007c:	05412823          	sw	s4,80(sp)
20000080:	05512a23          	sw	s5,84(sp)
20000084:	05612c23          	sw	s6,88(sp)
20000088:	05712e23          	sw	s7,92(sp)
2000008c:	07812023          	sw	s8,96(sp)
20000090:	07912223          	sw	s9,100(sp)
20000094:	07a12423          	sw	s10,104(sp)
20000098:	07b12623          	sw	s11,108(sp)
2000009c:	07c12823          	sw	t3,112(sp)
200000a0:	07d12a23          	sw	t4,116(sp)
200000a4:	07e12c23          	sw	t5,120(sp)
200000a8:	07f12e23          	sw	t6,124(sp)
200000ac:	34202573          	csrr	a0,mcause
200000b0:	341025f3          	csrr	a1,mepc
200000b4:	00010613          	mv	a2,sp
200000b8:	4b4000ef          	jal	ra,2000056c <handle_trap>
200000bc:	34151073          	csrw	mepc,a0
200000c0:	00412083          	lw	ra,4(sp)
200000c4:	00812103          	lw	sp,8(sp)
200000c8:	00c12183          	lw	gp,12(sp)
200000cc:	01012203          	lw	tp,16(sp)
200000d0:	01412283          	lw	t0,20(sp)
200000d4:	01812303          	lw	t1,24(sp)
200000d8:	01c12383          	lw	t2,28(sp)
200000dc:	02012403          	lw	s0,32(sp)
200000e0:	02412483          	lw	s1,36(sp)
200000e4:	02812503          	lw	a0,40(sp)
200000e8:	02c12583          	lw	a1,44(sp)
200000ec:	03012603          	lw	a2,48(sp)
200000f0:	03412683          	lw	a3,52(sp)
200000f4:	03812703          	lw	a4,56(sp)
200000f8:	03c12783          	lw	a5,60(sp)
200000fc:	04012803          	lw	a6,64(sp)
20000100:	04412883          	lw	a7,68(sp)
20000104:	04812903          	lw	s2,72(sp)
20000108:	04c12983          	lw	s3,76(sp)
2000010c:	05012a03          	lw	s4,80(sp)
20000110:	05412a83          	lw	s5,84(sp)
20000114:	05812b03          	lw	s6,88(sp)
20000118:	05c12b83          	lw	s7,92(sp)
2000011c:	06012c03          	lw	s8,96(sp)
20000120:	06412c83          	lw	s9,100(sp)
20000124:	06812d03          	lw	s10,104(sp)
20000128:	06c12d83          	lw	s11,108(sp)
2000012c:	07012e03          	lw	t3,112(sp)
20000130:	07412e83          	lw	t4,116(sp)
20000134:	07812f03          	lw	t5,120(sp)
20000138:	07c12f83          	lw	t6,124(sp)
2000013c:	08010113          	addi	sp,sp,128
20000140:	30200073          	mret

20000144 <mach_timer_handler>:
20000144:	fe010113          	addi	sp,sp,-32
20000148:	00812e23          	sw	s0,28(sp)
2000014c:	02010413          	addi	s0,sp,32
20000150:	fea42623          	sw	a0,-20(s0)
20000154:	feb42423          	sw	a1,-24(s0)
20000158:	40000437          	lui	s0,0x40000
2000015c:	fff00313          	li	t1,-1
20000160:	00100393          	li	t2,1
20000164:	10642623          	sw	t1,268(s0) # 4000010c <_etext+0x1ffff0a8>
20000168:	10642823          	sw	t1,272(s0)
2000016c:	10042223          	sw	zero,260(s0)
20000170:	10042423          	sw	zero,264(s0)
20000174:	10b42023          	sw	a1,256(s0)
20000178:	10042a23          	sw	zero,276(s0)
2000017c:	10742c23          	sw	t2,280(s0)
20000180:	00042023          	sw	zero,0(s0)
20000184:	00000013          	nop
20000188:	01c12403          	lw	s0,28(sp)
2000018c:	02010113          	addi	sp,sp,32
20000190:	00008067          	ret

20000194 <delay>:
20000194:	fd010113          	addi	sp,sp,-48
20000198:	02812623          	sw	s0,44(sp)
2000019c:	03010413          	addi	s0,sp,48
200001a0:	fca42e23          	sw	a0,-36(s0)
200001a4:	400007b7          	lui	a5,0x40000
200001a8:	10c78793          	addi	a5,a5,268 # 4000010c <_etext+0x1ffff0a8>
200001ac:	fef42623          	sw	a5,-20(s0)
200001b0:	fec42783          	lw	a5,-20(s0)
200001b4:	fdc42703          	lw	a4,-36(s0)
200001b8:	00e7a023          	sw	a4,0(a5)
200001bc:	40000437          	lui	s0,0x40000
200001c0:	10042823          	sw	zero,272(s0) # 40000110 <_etext+0x1ffff0ac>
200001c4:	08000293          	li	t0,128
200001c8:	00800313          	li	t1,8
200001cc:	30032073          	csrs	mstatus,t1
200001d0:	3042a073          	csrs	mie,t0
200001d4:	000205b7          	lui	a1,0x20
200001d8:	00258593          	addi	a1,a1,2 # 20002 <__global_pointer$-0xffdfffe>
200001dc:	10b42023          	sw	a1,256(s0)
200001e0:	00100293          	li	t0,1
200001e4:	10542a23          	sw	t0,276(s0)
200001e8:	00542023          	sw	t0,0(s0)
200001ec:	10500073          	wfi
200001f0:	00000013          	nop
200001f4:	02c12403          	lw	s0,44(sp)
200001f8:	03010113          	addi	sp,sp,48
200001fc:	00008067          	ret

20000200 <PWM_DUTYCYCLE>:
20000200:	fd010113          	addi	sp,sp,-48
20000204:	02812623          	sw	s0,44(sp)
20000208:	03010413          	addi	s0,sp,48
2000020c:	fca42e23          	sw	a0,-36(s0)
20000210:	fcb42c23          	sw	a1,-40(s0)
20000214:	fdc42703          	lw	a4,-36(s0)
20000218:	00100793          	li	a5,1
2000021c:	02f71e63          	bne	a4,a5,20000258 <PWM_DUTYCYCLE+0x58>
20000220:	400b07b7          	lui	a5,0x400b0
20000224:	00c78793          	addi	a5,a5,12 # 400b000c <_etext+0x200aefa8>
20000228:	fef42423          	sw	a5,-24(s0)
2000022c:	fe842783          	lw	a5,-24(s0)
20000230:	fd842703          	lw	a4,-40(s0)
20000234:	00e7a023          	sw	a4,0(a5)
20000238:	400b0437          	lui	s0,0x400b0
2000023c:	00700313          	li	t1,7
20000240:	00642023          	sw	t1,0(s0) # 400b0000 <_etext+0x200aef9c>
20000244:	00800313          	li	t1,8
20000248:	00642223          	sw	t1,4(s0)
2000024c:	7d000313          	li	t1,2000
20000250:	00642423          	sw	t1,8(s0)
20000254:	0380006f          	j	2000028c <PWM_DUTYCYCLE+0x8c>
20000258:	400b07b7          	lui	a5,0x400b0
2000025c:	01c78793          	addi	a5,a5,28 # 400b001c <_etext+0x200aefb8>
20000260:	fef42623          	sw	a5,-20(s0)
20000264:	fec42783          	lw	a5,-20(s0)
20000268:	fd842703          	lw	a4,-40(s0)
2000026c:	00e7a023          	sw	a4,0(a5)
20000270:	400b0437          	lui	s0,0x400b0
20000274:	00700313          	li	t1,7
20000278:	00642823          	sw	t1,16(s0) # 400b0010 <_etext+0x200aefac>
2000027c:	00800313          	li	t1,8
20000280:	00642a23          	sw	t1,20(s0)
20000284:	7d000313          	li	t1,2000
20000288:	00642c23          	sw	t1,24(s0)
2000028c:	00000013          	nop
20000290:	02c12403          	lw	s0,44(sp)
20000294:	03010113          	addi	sp,sp,48
20000298:	00008067          	ret

2000029c <index_to_mask>:
2000029c:	fe010113          	addi	sp,sp,-32
200002a0:	00812e23          	sw	s0,28(sp)
200002a4:	02010413          	addi	s0,sp,32
200002a8:	fea42623          	sw	a0,-20(s0)
200002ac:	fec42783          	lw	a5,-20(s0)
200002b0:	00100713          	li	a4,1
200002b4:	00f717b3          	sll	a5,a4,a5
200002b8:	00078513          	mv	a0,a5
200002bc:	01c12403          	lw	s0,28(sp)
200002c0:	02010113          	addi	sp,sp,32
200002c4:	00008067          	ret

200002c8 <mem_write32>:
200002c8:	fe010113          	addi	sp,sp,-32
200002cc:	00812e23          	sw	s0,28(sp)
200002d0:	02010413          	addi	s0,sp,32
200002d4:	fea42623          	sw	a0,-20(s0)
200002d8:	feb42423          	sw	a1,-24(s0)
200002dc:	fec42223          	sw	a2,-28(s0)
200002e0:	fe842783          	lw	a5,-24(s0)
200002e4:	ffc7f713          	andi	a4,a5,-4
200002e8:	fec42783          	lw	a5,-20(s0)
200002ec:	00f707b3          	add	a5,a4,a5
200002f0:	00078713          	mv	a4,a5
200002f4:	fe442783          	lw	a5,-28(s0)
200002f8:	00f72023          	sw	a5,0(a4)
200002fc:	00000013          	nop
20000300:	01c12403          	lw	s0,28(sp)
20000304:	02010113          	addi	sp,sp,32
20000308:	00008067          	ret

2000030c <mem_read32>:
2000030c:	fe010113          	addi	sp,sp,-32
20000310:	00812e23          	sw	s0,28(sp)
20000314:	02010413          	addi	s0,sp,32
20000318:	fea42623          	sw	a0,-20(s0)
2000031c:	feb42423          	sw	a1,-24(s0)
20000320:	fe842783          	lw	a5,-24(s0)
20000324:	ffc7f713          	andi	a4,a5,-4
20000328:	fec42783          	lw	a5,-20(s0)
2000032c:	00f707b3          	add	a5,a4,a5
20000330:	0007a783          	lw	a5,0(a5)
20000334:	00078513          	mv	a0,a5
20000338:	01c12403          	lw	s0,28(sp)
2000033c:	02010113          	addi	sp,sp,32
20000340:	00008067          	ret

20000344 <bitfield_bit32_to_field32>:
20000344:	fd010113          	addi	sp,sp,-48
20000348:	02812623          	sw	s0,44(sp)
2000034c:	03010413          	addi	s0,sp,48
20000350:	fca42e23          	sw	a0,-36(s0)
20000354:	00100793          	li	a5,1
20000358:	fef42423          	sw	a5,-24(s0)
2000035c:	fdc42783          	lw	a5,-36(s0)
20000360:	fef42623          	sw	a5,-20(s0)
20000364:	00000713          	li	a4,0
20000368:	fe842703          	lw	a4,-24(s0)
2000036c:	00000793          	li	a5,0
20000370:	fec42783          	lw	a5,-20(s0)
20000374:	00070613          	mv	a2,a4
20000378:	00078693          	mv	a3,a5
2000037c:	00060713          	mv	a4,a2
20000380:	00068793          	mv	a5,a3
20000384:	00070513          	mv	a0,a4
20000388:	00078593          	mv	a1,a5
2000038c:	02c12403          	lw	s0,44(sp)
20000390:	03010113          	addi	sp,sp,48
20000394:	00008067          	ret

20000398 <bitfield_field32_write>:
20000398:	fe010113          	addi	sp,sp,-32
2000039c:	00812e23          	sw	s0,28(sp)
200003a0:	02010413          	addi	s0,sp,32
200003a4:	fea42623          	sw	a0,-20(s0)
200003a8:	feb42223          	sw	a1,-28(s0)
200003ac:	fec42423          	sw	a2,-24(s0)
200003b0:	fed42023          	sw	a3,-32(s0)
200003b4:	fe442703          	lw	a4,-28(s0)
200003b8:	fe842783          	lw	a5,-24(s0)
200003bc:	00f717b3          	sll	a5,a4,a5
200003c0:	fff7c793          	not	a5,a5
200003c4:	fec42703          	lw	a4,-20(s0)
200003c8:	00f777b3          	and	a5,a4,a5
200003cc:	fef42623          	sw	a5,-20(s0)
200003d0:	fe442703          	lw	a4,-28(s0)
200003d4:	fe042783          	lw	a5,-32(s0)
200003d8:	00f77733          	and	a4,a4,a5
200003dc:	fe842783          	lw	a5,-24(s0)
200003e0:	00f717b3          	sll	a5,a4,a5
200003e4:	fec42703          	lw	a4,-20(s0)
200003e8:	00f767b3          	or	a5,a4,a5
200003ec:	fef42623          	sw	a5,-20(s0)
200003f0:	fec42783          	lw	a5,-20(s0)
200003f4:	00078513          	mv	a0,a5
200003f8:	01c12403          	lw	s0,28(sp)
200003fc:	02010113          	addi	sp,sp,32
20000400:	00008067          	ret

20000404 <bitfield_bit32_write>:
20000404:	fd010113          	addi	sp,sp,-48
20000408:	02112623          	sw	ra,44(sp)
2000040c:	02812423          	sw	s0,40(sp)
20000410:	03010413          	addi	s0,sp,48
20000414:	fca42e23          	sw	a0,-36(s0)
20000418:	fcb42c23          	sw	a1,-40(s0)
2000041c:	00060793          	mv	a5,a2
20000420:	fcf40ba3          	sb	a5,-41(s0)
20000424:	fd842503          	lw	a0,-40(s0)
20000428:	f1dff0ef          	jal	ra,20000344 <bitfield_bit32_to_field32>
2000042c:	00050713          	mv	a4,a0
20000430:	00058793          	mv	a5,a1
20000434:	fee42423          	sw	a4,-24(s0)
20000438:	fef42623          	sw	a5,-20(s0)
2000043c:	fd744783          	lbu	a5,-41(s0)
20000440:	00078663          	beqz	a5,2000044c <bitfield_bit32_write+0x48>
20000444:	00100793          	li	a5,1
20000448:	0080006f          	j	20000450 <bitfield_bit32_write+0x4c>
2000044c:	00000793          	li	a5,0
20000450:	00078693          	mv	a3,a5
20000454:	fe842583          	lw	a1,-24(s0)
20000458:	fec42603          	lw	a2,-20(s0)
2000045c:	fdc42503          	lw	a0,-36(s0)
20000460:	f39ff0ef          	jal	ra,20000398 <bitfield_field32_write>
20000464:	00050793          	mv	a5,a0
20000468:	00078513          	mv	a0,a5
2000046c:	02c12083          	lw	ra,44(sp)
20000470:	02812403          	lw	s0,40(sp)
20000474:	03010113          	addi	sp,sp,48
20000478:	00008067          	ret

2000047c <bitfield_field32_read>:
2000047c:	fe010113          	addi	sp,sp,-32
20000480:	00812e23          	sw	s0,28(sp)
20000484:	02010413          	addi	s0,sp,32
20000488:	fea42623          	sw	a0,-20(s0)
2000048c:	feb42223          	sw	a1,-28(s0)
20000490:	fec42423          	sw	a2,-24(s0)
20000494:	fe842783          	lw	a5,-24(s0)
20000498:	fec42703          	lw	a4,-20(s0)
2000049c:	00f75733          	srl	a4,a4,a5
200004a0:	fe442783          	lw	a5,-28(s0)
200004a4:	00f777b3          	and	a5,a4,a5
200004a8:	00078513          	mv	a0,a5
200004ac:	01c12403          	lw	s0,28(sp)
200004b0:	02010113          	addi	sp,sp,32
200004b4:	00008067          	ret

200004b8 <bitfield_bit32_read>:
200004b8:	fd010113          	addi	sp,sp,-48
200004bc:	02112623          	sw	ra,44(sp)
200004c0:	02812423          	sw	s0,40(sp)
200004c4:	03010413          	addi	s0,sp,48
200004c8:	fca42e23          	sw	a0,-36(s0)
200004cc:	fcb42c23          	sw	a1,-40(s0)
200004d0:	fd842503          	lw	a0,-40(s0)
200004d4:	e71ff0ef          	jal	ra,20000344 <bitfield_bit32_to_field32>
200004d8:	00050713          	mv	a4,a0
200004dc:	00058793          	mv	a5,a1
200004e0:	fee42423          	sw	a4,-24(s0)
200004e4:	fef42623          	sw	a5,-20(s0)
200004e8:	fe842583          	lw	a1,-24(s0)
200004ec:	fec42603          	lw	a2,-20(s0)
200004f0:	fdc42503          	lw	a0,-36(s0)
200004f4:	f89ff0ef          	jal	ra,2000047c <bitfield_field32_read>
200004f8:	00050793          	mv	a5,a0
200004fc:	fff78793          	addi	a5,a5,-1
20000500:	0017b793          	seqz	a5,a5
20000504:	0ff7f793          	andi	a5,a5,255
20000508:	00078513          	mv	a0,a5
2000050c:	02c12083          	lw	ra,44(sp)
20000510:	02812403          	lw	s0,40(sp)
20000514:	03010113          	addi	sp,sp,48
20000518:	00008067          	ret

2000051c <extract_ie_code>:
2000051c:	fd010113          	addi	sp,sp,-48
20000520:	02812623          	sw	s0,44(sp)
20000524:	03010413          	addi	s0,sp,48
20000528:	fca42e23          	sw	a0,-36(s0)
2000052c:	fdc42703          	lw	a4,-36(s0)
20000530:	800007b7          	lui	a5,0x80000
20000534:	fff7c793          	not	a5,a5
20000538:	00f777b3          	and	a5,a4,a5
2000053c:	fef42623          	sw	a5,-20(s0)
20000540:	fec42783          	lw	a5,-20(s0)
20000544:	00078513          	mv	a0,a5
20000548:	02c12403          	lw	s0,44(sp)
2000054c:	03010113          	addi	sp,sp,48
20000550:	00008067          	ret

20000554 <default_handler>:
20000554:	fe010113          	addi	sp,sp,-32
20000558:	00812e23          	sw	s0,28(sp)
2000055c:	02010413          	addi	s0,sp,32
20000560:	fea42623          	sw	a0,-20(s0)
20000564:	feb42423          	sw	a1,-24(s0)
20000568:	0000006f          	j	20000568 <default_handler+0x14>

2000056c <handle_trap>:
2000056c:	fd010113          	addi	sp,sp,-48
20000570:	02112623          	sw	ra,44(sp)
20000574:	02812423          	sw	s0,40(sp)
20000578:	03010413          	addi	s0,sp,48
2000057c:	fca42e23          	sw	a0,-36(s0)
20000580:	fcb42c23          	sw	a1,-40(s0)
20000584:	fe042623          	sw	zero,-20(s0)
20000588:	fe042423          	sw	zero,-24(s0)
2000058c:	01f00793          	li	a5,31
20000590:	fef42423          	sw	a5,-24(s0)
20000594:	fe842783          	lw	a5,-24(s0)
20000598:	00100713          	li	a4,1
2000059c:	00f717b3          	sll	a5,a4,a5
200005a0:	00078713          	mv	a4,a5
200005a4:	fdc42783          	lw	a5,-36(s0)
200005a8:	00f777b3          	and	a5,a4,a5
200005ac:	04078463          	beqz	a5,200005f4 <handle_trap+0x88>
200005b0:	fdc42503          	lw	a0,-36(s0)
200005b4:	f69ff0ef          	jal	ra,2000051c <extract_ie_code>
200005b8:	fea42623          	sw	a0,-20(s0)
200005bc:	fec42703          	lw	a4,-20(s0)
200005c0:	00b00793          	li	a5,11
200005c4:	00f71a63          	bne	a4,a5,200005d8 <handle_trap+0x6c>
200005c8:	fd842583          	lw	a1,-40(s0)
200005cc:	fdc42503          	lw	a0,-36(s0)
200005d0:	2bc000ef          	jal	ra,2000088c <mach_plic_handler>
200005d4:	0400006f          	j	20000614 <handle_trap+0xa8>
200005d8:	fec42703          	lw	a4,-20(s0)
200005dc:	00700793          	li	a5,7
200005e0:	02f71a63          	bne	a4,a5,20000614 <handle_trap+0xa8>
200005e4:	fd842583          	lw	a1,-40(s0)
200005e8:	fdc42503          	lw	a0,-36(s0)
200005ec:	b59ff0ef          	jal	ra,20000144 <mach_timer_handler>
200005f0:	0240006f          	j	20000614 <handle_trap+0xa8>
200005f4:	04018713          	addi	a4,gp,64 # 10000040 <mcause_trap_table>
200005f8:	fdc42783          	lw	a5,-36(s0)
200005fc:	00279793          	slli	a5,a5,0x2
20000600:	00f707b3          	add	a5,a4,a5
20000604:	0007a783          	lw	a5,0(a5) # 80000000 <_etext+0x5fffef9c>
20000608:	fd842583          	lw	a1,-40(s0)
2000060c:	fdc42503          	lw	a0,-36(s0)
20000610:	000780e7          	jalr	a5
20000614:	fd842783          	lw	a5,-40(s0)
20000618:	00078513          	mv	a0,a5
2000061c:	02c12083          	lw	ra,44(sp)
20000620:	02812403          	lw	s0,40(sp)
20000624:	03010113          	addi	sp,sp,48
20000628:	00008067          	ret

2000062c <index_to_mask>:
2000062c:	fe010113          	addi	sp,sp,-32
20000630:	00812e23          	sw	s0,28(sp)
20000634:	02010413          	addi	s0,sp,32
20000638:	fea42623          	sw	a0,-20(s0)
2000063c:	fec42783          	lw	a5,-20(s0)
20000640:	00100713          	li	a4,1
20000644:	00f717b3          	sll	a5,a4,a5
20000648:	00078513          	mv	a0,a5
2000064c:	01c12403          	lw	s0,28(sp)
20000650:	02010113          	addi	sp,sp,32
20000654:	00008067          	ret

20000658 <plic_priority_reg_offset>:
20000658:	fd010113          	addi	sp,sp,-48
2000065c:	02812623          	sw	s0,44(sp)
20000660:	03010413          	addi	s0,sp,48
20000664:	fca42e23          	sw	a0,-36(s0)
20000668:	fdc42783          	lw	a5,-36(s0)
2000066c:	00279793          	slli	a5,a5,0x2
20000670:	fef42623          	sw	a5,-20(s0)
20000674:	fec42783          	lw	a5,-20(s0)
20000678:	01078793          	addi	a5,a5,16
2000067c:	00078513          	mv	a0,a5
20000680:	02c12403          	lw	s0,44(sp)
20000684:	03010113          	addi	sp,sp,48
20000688:	00008067          	ret

2000068c <plic_irq_enable_base_for_target>:
2000068c:	fd010113          	addi	sp,sp,-48
20000690:	02812623          	sw	s0,44(sp)
20000694:	03010413          	addi	s0,sp,48
20000698:	fca42e23          	sw	a0,-36(s0)
2000069c:	00800793          	li	a5,8
200006a0:	fef42623          	sw	a5,-20(s0)
200006a4:	fec42703          	lw	a4,-20(s0)
200006a8:	fdc42783          	lw	a5,-36(s0)
200006ac:	02f707b3          	mul	a5,a4,a5
200006b0:	0c078793          	addi	a5,a5,192
200006b4:	00078513          	mv	a0,a5
200006b8:	02c12403          	lw	s0,44(sp)
200006bc:	03010113          	addi	sp,sp,48
200006c0:	00008067          	ret

200006c4 <plic_offset_from_reg0>:
200006c4:	fd010113          	addi	sp,sp,-48
200006c8:	02812623          	sw	s0,44(sp)
200006cc:	03010413          	addi	s0,sp,48
200006d0:	fca42e23          	sw	a0,-36(s0)
200006d4:	fdc42783          	lw	a5,-36(s0)
200006d8:	0057d793          	srli	a5,a5,0x5
200006dc:	fef407a3          	sb	a5,-17(s0)
200006e0:	fef44783          	lbu	a5,-17(s0)
200006e4:	00279793          	slli	a5,a5,0x2
200006e8:	00078513          	mv	a0,a5
200006ec:	02c12403          	lw	s0,44(sp)
200006f0:	03010113          	addi	sp,sp,48
200006f4:	00008067          	ret

200006f8 <plic_irq_bit_index>:
200006f8:	fe010113          	addi	sp,sp,-32
200006fc:	00812e23          	sw	s0,28(sp)
20000700:	02010413          	addi	s0,sp,32
20000704:	fea42623          	sw	a0,-20(s0)
20000708:	fec42783          	lw	a5,-20(s0)
2000070c:	0ff7f793          	andi	a5,a5,255
20000710:	01f7f793          	andi	a5,a5,31
20000714:	0ff7f793          	andi	a5,a5,255
20000718:	00078513          	mv	a0,a5
2000071c:	01c12403          	lw	s0,28(sp)
20000720:	02010113          	addi	sp,sp,32
20000724:	00008067          	ret

20000728 <plic_irq_enable_reg_info>:
20000728:	fb010113          	addi	sp,sp,-80
2000072c:	04112623          	sw	ra,76(sp)
20000730:	04812423          	sw	s0,72(sp)
20000734:	04912223          	sw	s1,68(sp)
20000738:	05212023          	sw	s2,64(sp)
2000073c:	03312e23          	sw	s3,60(sp)
20000740:	05010413          	addi	s0,sp,80
20000744:	faa42e23          	sw	a0,-68(s0)
20000748:	fab42c23          	sw	a1,-72(s0)
2000074c:	fbc42503          	lw	a0,-68(s0)
20000750:	f75ff0ef          	jal	ra,200006c4 <plic_offset_from_reg0>
20000754:	fca42e23          	sw	a0,-36(s0)
20000758:	fb842503          	lw	a0,-72(s0)
2000075c:	f31ff0ef          	jal	ra,2000068c <plic_irq_enable_base_for_target>
20000760:	00050713          	mv	a4,a0
20000764:	fdc42783          	lw	a5,-36(s0)
20000768:	00f704b3          	add	s1,a4,a5
2000076c:	fbc42503          	lw	a0,-68(s0)
20000770:	f89ff0ef          	jal	ra,200006f8 <plic_irq_bit_index>
20000774:	00050793          	mv	a5,a0
20000778:	fc942a23          	sw	s1,-44(s0)
2000077c:	fcf42c23          	sw	a5,-40(s0)
20000780:	00000713          	li	a4,0
20000784:	fd442703          	lw	a4,-44(s0)
20000788:	00000793          	li	a5,0
2000078c:	fd842783          	lw	a5,-40(s0)
20000790:	00070913          	mv	s2,a4
20000794:	00078993          	mv	s3,a5
20000798:	00090713          	mv	a4,s2
2000079c:	00098793          	mv	a5,s3
200007a0:	00070513          	mv	a0,a4
200007a4:	00078593          	mv	a1,a5
200007a8:	04c12083          	lw	ra,76(sp)
200007ac:	04812403          	lw	s0,72(sp)
200007b0:	04412483          	lw	s1,68(sp)
200007b4:	04012903          	lw	s2,64(sp)
200007b8:	03c12983          	lw	s3,60(sp)
200007bc:	05010113          	addi	sp,sp,80
200007c0:	00008067          	ret

200007c4 <plic_irq_trigger_type_reg_info>:
200007c4:	fb010113          	addi	sp,sp,-80
200007c8:	04112623          	sw	ra,76(sp)
200007cc:	04812423          	sw	s0,72(sp)
200007d0:	04912223          	sw	s1,68(sp)
200007d4:	05212023          	sw	s2,64(sp)
200007d8:	03312e23          	sw	s3,60(sp)
200007dc:	05010413          	addi	s0,sp,80
200007e0:	faa42e23          	sw	a0,-68(s0)
200007e4:	fbc42503          	lw	a0,-68(s0)
200007e8:	eddff0ef          	jal	ra,200006c4 <plic_offset_from_reg0>
200007ec:	fca42e23          	sw	a0,-36(s0)
200007f0:	fdc42783          	lw	a5,-36(s0)
200007f4:	00878493          	addi	s1,a5,8
200007f8:	fbc42503          	lw	a0,-68(s0)
200007fc:	efdff0ef          	jal	ra,200006f8 <plic_irq_bit_index>
20000800:	00050793          	mv	a5,a0
20000804:	fc942a23          	sw	s1,-44(s0)
20000808:	fcf42c23          	sw	a5,-40(s0)
2000080c:	00000713          	li	a4,0
20000810:	fd442703          	lw	a4,-44(s0)
20000814:	00000793          	li	a5,0
20000818:	fd842783          	lw	a5,-40(s0)
2000081c:	00070913          	mv	s2,a4
20000820:	00078993          	mv	s3,a5
20000824:	00090713          	mv	a4,s2
20000828:	00098793          	mv	a5,s3
2000082c:	00070513          	mv	a0,a4
20000830:	00078593          	mv	a1,a5
20000834:	04c12083          	lw	ra,76(sp)
20000838:	04812403          	lw	s0,72(sp)
2000083c:	04412483          	lw	s1,68(sp)
20000840:	04012903          	lw	s2,64(sp)
20000844:	03c12983          	lw	s3,60(sp)
20000848:	05010113          	addi	sp,sp,80
2000084c:	00008067          	ret

20000850 <interrupt_claim_request>:
20000850:	fe010113          	addi	sp,sp,-32
20000854:	00812e23          	sw	s0,28(sp)
20000858:	02010413          	addi	s0,sp,32
2000085c:	fe042623          	sw	zero,-20(s0)
20000860:	400507b7          	lui	a5,0x40050
20000864:	0cc78793          	addi	a5,a5,204 # 400500cc <_etext+0x2004f068>
20000868:	fef42623          	sw	a5,-20(s0)
2000086c:	fec42783          	lw	a5,-20(s0)
20000870:	0007a783          	lw	a5,0(a5)
20000874:	fef42423          	sw	a5,-24(s0)
20000878:	fe842783          	lw	a5,-24(s0)
2000087c:	00078513          	mv	a0,a5
20000880:	01c12403          	lw	s0,28(sp)
20000884:	02010113          	addi	sp,sp,32
20000888:	00008067          	ret

2000088c <mach_plic_handler>:
2000088c:	fd010113          	addi	sp,sp,-48
20000890:	02112623          	sw	ra,44(sp)
20000894:	02812423          	sw	s0,40(sp)
20000898:	03010413          	addi	s0,sp,48
2000089c:	fca42e23          	sw	a0,-36(s0)
200008a0:	fcb42c23          	sw	a1,-40(s0)
200008a4:	274000ef          	jal	ra,20000b18 <plic_irq_claim>
200008a8:	fea42623          	sw	a0,-20(s0)
200008ac:	08018713          	addi	a4,gp,128 # 10000080 <isr_table>
200008b0:	fec42783          	lw	a5,-20(s0)
200008b4:	00279793          	slli	a5,a5,0x2
200008b8:	00f707b3          	add	a5,a4,a5
200008bc:	0007a783          	lw	a5,0(a5)
200008c0:	fec42503          	lw	a0,-20(s0)
200008c4:	000780e7          	jalr	a5
200008c8:	fec42503          	lw	a0,-20(s0)
200008cc:	284000ef          	jal	ra,20000b50 <plic_irq_complete>
200008d0:	00000013          	nop
200008d4:	02c12083          	lw	ra,44(sp)
200008d8:	02812403          	lw	s0,40(sp)
200008dc:	03010113          	addi	sp,sp,48
200008e0:	00008067          	ret

200008e4 <plic_set_priority>:
200008e4:	fd010113          	addi	sp,sp,-48
200008e8:	02112623          	sw	ra,44(sp)
200008ec:	02812423          	sw	s0,40(sp)
200008f0:	03010413          	addi	s0,sp,48
200008f4:	fca42e23          	sw	a0,-36(s0)
200008f8:	fcb42c23          	sw	a1,-40(s0)
200008fc:	fdc42783          	lw	a5,-36(s0)
20000900:	00078513          	mv	a0,a5
20000904:	d55ff0ef          	jal	ra,20000658 <plic_priority_reg_offset>
20000908:	fea42623          	sw	a0,-20(s0)
2000090c:	fec42783          	lw	a5,-20(s0)
20000910:	fd842603          	lw	a2,-40(s0)
20000914:	00078593          	mv	a1,a5
20000918:	40050537          	lui	a0,0x40050
2000091c:	9adff0ef          	jal	ra,200002c8 <mem_write32>
20000920:	00000013          	nop
20000924:	02c12083          	lw	ra,44(sp)
20000928:	02812403          	lw	s0,40(sp)
2000092c:	03010113          	addi	sp,sp,48
20000930:	00008067          	ret

20000934 <plic_set_threshold>:
20000934:	fe010113          	addi	sp,sp,-32
20000938:	00112e23          	sw	ra,28(sp)
2000093c:	00812c23          	sw	s0,24(sp)
20000940:	02010413          	addi	s0,sp,32
20000944:	fea42623          	sw	a0,-20(s0)
20000948:	fec42603          	lw	a2,-20(s0)
2000094c:	0c800593          	li	a1,200
20000950:	40050537          	lui	a0,0x40050
20000954:	975ff0ef          	jal	ra,200002c8 <mem_write32>
20000958:	00000013          	nop
2000095c:	01c12083          	lw	ra,28(sp)
20000960:	01812403          	lw	s0,24(sp)
20000964:	02010113          	addi	sp,sp,32
20000968:	00008067          	ret

2000096c <plic_enable_interrupt>:
2000096c:	fd010113          	addi	sp,sp,-48
20000970:	02112623          	sw	ra,44(sp)
20000974:	02812423          	sw	s0,40(sp)
20000978:	03010413          	addi	s0,sp,48
2000097c:	fca42e23          	sw	a0,-36(s0)
20000980:	fdc42783          	lw	a5,-36(s0)
20000984:	03f7f793          	andi	a5,a5,63
20000988:	00078513          	mv	a0,a5
2000098c:	ca1ff0ef          	jal	ra,2000062c <index_to_mask>
20000990:	fea42623          	sw	a0,-20(s0)
20000994:	fec42603          	lw	a2,-20(s0)
20000998:	0c000593          	li	a1,192
2000099c:	40050537          	lui	a0,0x40050
200009a0:	929ff0ef          	jal	ra,200002c8 <mem_write32>
200009a4:	00000013          	nop
200009a8:	02c12083          	lw	ra,44(sp)
200009ac:	02812403          	lw	s0,40(sp)
200009b0:	03010113          	addi	sp,sp,48
200009b4:	00008067          	ret

200009b8 <plic_set_trigger_type>:
200009b8:	fe010113          	addi	sp,sp,-32
200009bc:	00112e23          	sw	ra,28(sp)
200009c0:	00812c23          	sw	s0,24(sp)
200009c4:	02010413          	addi	s0,sp,32
200009c8:	fea42623          	sw	a0,-20(s0)
200009cc:	fec42603          	lw	a2,-20(s0)
200009d0:	00800593          	li	a1,8
200009d4:	40050537          	lui	a0,0x40050
200009d8:	8f1ff0ef          	jal	ra,200002c8 <mem_write32>
200009dc:	00000013          	nop
200009e0:	01c12083          	lw	ra,28(sp)
200009e4:	01812403          	lw	s0,24(sp)
200009e8:	02010113          	addi	sp,sp,32
200009ec:	00008067          	ret

200009f0 <plic_irq_set_enabled>:
200009f0:	fd010113          	addi	sp,sp,-48
200009f4:	02112623          	sw	ra,44(sp)
200009f8:	02812423          	sw	s0,40(sp)
200009fc:	03010413          	addi	s0,sp,48
20000a00:	fca42e23          	sw	a0,-36(s0)
20000a04:	00058793          	mv	a5,a1
20000a08:	fcc42a23          	sw	a2,-44(s0)
20000a0c:	fcf40da3          	sb	a5,-37(s0)
20000a10:	fd442583          	lw	a1,-44(s0)
20000a14:	fdc42503          	lw	a0,-36(s0)
20000a18:	d11ff0ef          	jal	ra,20000728 <plic_irq_enable_reg_info>
20000a1c:	00050713          	mv	a4,a0
20000a20:	00058793          	mv	a5,a1
20000a24:	fee42223          	sw	a4,-28(s0)
20000a28:	fef42423          	sw	a5,-24(s0)
20000a2c:	fe442783          	lw	a5,-28(s0)
20000a30:	00078593          	mv	a1,a5
20000a34:	40050537          	lui	a0,0x40050
20000a38:	8d5ff0ef          	jal	ra,2000030c <mem_read32>
20000a3c:	fea42623          	sw	a0,-20(s0)
20000a40:	fe842703          	lw	a4,-24(s0)
20000a44:	fdb44783          	lbu	a5,-37(s0)
20000a48:	00f037b3          	snez	a5,a5
20000a4c:	0ff7f793          	andi	a5,a5,255
20000a50:	00078613          	mv	a2,a5
20000a54:	00070593          	mv	a1,a4
20000a58:	fec42503          	lw	a0,-20(s0)
20000a5c:	9a9ff0ef          	jal	ra,20000404 <bitfield_bit32_write>
20000a60:	fea42623          	sw	a0,-20(s0)
20000a64:	fe442783          	lw	a5,-28(s0)
20000a68:	fec42603          	lw	a2,-20(s0)
20000a6c:	00078593          	mv	a1,a5
20000a70:	40050537          	lui	a0,0x40050
20000a74:	855ff0ef          	jal	ra,200002c8 <mem_write32>
20000a78:	00000013          	nop
20000a7c:	02c12083          	lw	ra,44(sp)
20000a80:	02812403          	lw	s0,40(sp)
20000a84:	03010113          	addi	sp,sp,48
20000a88:	00008067          	ret

20000a8c <plic_irq_set_trigger>:
20000a8c:	fd010113          	addi	sp,sp,-48
20000a90:	02112623          	sw	ra,44(sp)
20000a94:	02812423          	sw	s0,40(sp)
20000a98:	03010413          	addi	s0,sp,48
20000a9c:	fca42e23          	sw	a0,-36(s0)
20000aa0:	fcb42c23          	sw	a1,-40(s0)
20000aa4:	fe0407a3          	sb	zero,-17(s0)
20000aa8:	fdc42503          	lw	a0,-36(s0)
20000aac:	d19ff0ef          	jal	ra,200007c4 <plic_irq_trigger_type_reg_info>
20000ab0:	00050713          	mv	a4,a0
20000ab4:	00058793          	mv	a5,a1
20000ab8:	fee42023          	sw	a4,-32(s0)
20000abc:	fef42223          	sw	a5,-28(s0)
20000ac0:	fe042783          	lw	a5,-32(s0)
20000ac4:	00078593          	mv	a1,a5
20000ac8:	40050537          	lui	a0,0x40050
20000acc:	841ff0ef          	jal	ra,2000030c <mem_read32>
20000ad0:	fea42423          	sw	a0,-24(s0)
20000ad4:	fe442783          	lw	a5,-28(s0)
20000ad8:	fef44703          	lbu	a4,-17(s0)
20000adc:	00070613          	mv	a2,a4
20000ae0:	00078593          	mv	a1,a5
20000ae4:	fe842503          	lw	a0,-24(s0)
20000ae8:	91dff0ef          	jal	ra,20000404 <bitfield_bit32_write>
20000aec:	fea42423          	sw	a0,-24(s0)
20000af0:	fe042783          	lw	a5,-32(s0)
20000af4:	fe842603          	lw	a2,-24(s0)
20000af8:	00078593          	mv	a1,a5
20000afc:	40050537          	lui	a0,0x40050
20000b00:	fc8ff0ef          	jal	ra,200002c8 <mem_write32>
20000b04:	00000013          	nop
20000b08:	02c12083          	lw	ra,44(sp)
20000b0c:	02812403          	lw	s0,40(sp)
20000b10:	03010113          	addi	sp,sp,48
20000b14:	00008067          	ret

20000b18 <plic_irq_claim>:
20000b18:	fe010113          	addi	sp,sp,-32
20000b1c:	00112e23          	sw	ra,28(sp)
20000b20:	00812c23          	sw	s0,24(sp)
20000b24:	02010413          	addi	s0,sp,32
20000b28:	0cc00593          	li	a1,204
20000b2c:	40050537          	lui	a0,0x40050
20000b30:	fdcff0ef          	jal	ra,2000030c <mem_read32>
20000b34:	fea42623          	sw	a0,-20(s0)
20000b38:	fec42783          	lw	a5,-20(s0)
20000b3c:	00078513          	mv	a0,a5
20000b40:	01c12083          	lw	ra,28(sp)
20000b44:	01812403          	lw	s0,24(sp)
20000b48:	02010113          	addi	sp,sp,32
20000b4c:	00008067          	ret

20000b50 <plic_irq_complete>:
20000b50:	fe010113          	addi	sp,sp,-32
20000b54:	00112e23          	sw	ra,28(sp)
20000b58:	00812c23          	sw	s0,24(sp)
20000b5c:	02010413          	addi	s0,sp,32
20000b60:	fea42623          	sw	a0,-20(s0)
20000b64:	fec42603          	lw	a2,-20(s0)
20000b68:	0cc00593          	li	a1,204
20000b6c:	40050537          	lui	a0,0x40050
20000b70:	f58ff0ef          	jal	ra,200002c8 <mem_write32>
20000b74:	00000013          	nop
20000b78:	01c12083          	lw	ra,28(sp)
20000b7c:	01812403          	lw	s0,24(sp)
20000b80:	02010113          	addi	sp,sp,32
20000b84:	00008067          	ret

20000b88 <plic_init>:
20000b88:	fe010113          	addi	sp,sp,-32
20000b8c:	00112e23          	sw	ra,28(sp)
20000b90:	00812c23          	sw	s0,24(sp)
20000b94:	02010413          	addi	s0,sp,32
20000b98:	fea42623          	sw	a0,-20(s0)
20000b9c:	feb42423          	sw	a1,-24(s0)
20000ba0:	00200513          	li	a0,2
20000ba4:	d91ff0ef          	jal	ra,20000934 <plic_set_threshold>
20000ba8:	00300593          	li	a1,3
20000bac:	fec42503          	lw	a0,-20(s0)
20000bb0:	d35ff0ef          	jal	ra,200008e4 <plic_set_priority>
20000bb4:	fec42783          	lw	a5,-20(s0)
20000bb8:	fe842603          	lw	a2,-24(s0)
20000bbc:	00100593          	li	a1,1
20000bc0:	00078513          	mv	a0,a5
20000bc4:	e2dff0ef          	jal	ra,200009f0 <plic_irq_set_enabled>
20000bc8:	fec42783          	lw	a5,-20(s0)
20000bcc:	00000593          	li	a1,0
20000bd0:	00078513          	mv	a0,a5
20000bd4:	eb9ff0ef          	jal	ra,20000a8c <plic_irq_set_trigger>
20000bd8:	00000013          	nop
20000bdc:	01c12083          	lw	ra,28(sp)
20000be0:	01812403          	lw	s0,24(sp)
20000be4:	02010113          	addi	sp,sp,32
20000be8:	00008067          	ret

20000bec <index_to_mask>:
20000bec:	fe010113          	addi	sp,sp,-32
20000bf0:	00812e23          	sw	s0,28(sp)
20000bf4:	02010413          	addi	s0,sp,32
20000bf8:	fea42623          	sw	a0,-20(s0)
20000bfc:	fec42783          	lw	a5,-20(s0)
20000c00:	00100713          	li	a4,1
20000c04:	00f717b3          	sll	a5,a4,a5
20000c08:	00078513          	mv	a0,a5
20000c0c:	01c12403          	lw	s0,28(sp)
20000c10:	02010113          	addi	sp,sp,32
20000c14:	00008067          	ret

20000c18 <gpio_direct_bit_write>:
20000c18:	fd010113          	addi	sp,sp,-48
20000c1c:	02112623          	sw	ra,44(sp)
20000c20:	02812423          	sw	s0,40(sp)
20000c24:	03010413          	addi	s0,sp,48
20000c28:	fca42e23          	sw	a0,-36(s0)
20000c2c:	fcb42c23          	sw	a1,-40(s0)
20000c30:	00060793          	mv	a5,a2
20000c34:	fcf40ba3          	sb	a5,-41(s0)
20000c38:	fd842783          	lw	a5,-40(s0)
20000c3c:	01f7f793          	andi	a5,a5,31
20000c40:	00078513          	mv	a0,a5
20000c44:	fa9ff0ef          	jal	ra,20000bec <index_to_mask>
20000c48:	fea42623          	sw	a0,-20(s0)
20000c4c:	fd744783          	lbu	a5,-41(s0)
20000c50:	00078663          	beqz	a5,20000c5c <gpio_direct_bit_write+0x44>
20000c54:	fec42783          	lw	a5,-20(s0)
20000c58:	0080006f          	j	20000c60 <gpio_direct_bit_write+0x48>
20000c5c:	00000793          	li	a5,0
20000c60:	00078613          	mv	a2,a5
20000c64:	fdc42583          	lw	a1,-36(s0)
20000c68:	400c0537          	lui	a0,0x400c0
20000c6c:	e5cff0ef          	jal	ra,200002c8 <mem_write32>
20000c70:	00000013          	nop
20000c74:	02c12083          	lw	ra,44(sp)
20000c78:	02812403          	lw	s0,40(sp)
20000c7c:	03010113          	addi	sp,sp,48
20000c80:	00008067          	ret

20000c84 <gpio_intr_enable>:
20000c84:	fe010113          	addi	sp,sp,-32
20000c88:	00112e23          	sw	ra,28(sp)
20000c8c:	00812c23          	sw	s0,24(sp)
20000c90:	02010413          	addi	s0,sp,32
20000c94:	fea42623          	sw	a0,-20(s0)
20000c98:	00100613          	li	a2,1
20000c9c:	fec42583          	lw	a1,-20(s0)
20000ca0:	00400513          	li	a0,4
20000ca4:	f75ff0ef          	jal	ra,20000c18 <gpio_direct_bit_write>
20000ca8:	00000013          	nop
20000cac:	01c12083          	lw	ra,28(sp)
20000cb0:	01812403          	lw	s0,24(sp)
20000cb4:	02010113          	addi	sp,sp,32
20000cb8:	00008067          	ret

20000cbc <gpio_intr_test>:
20000cbc:	fe010113          	addi	sp,sp,-32
20000cc0:	00112e23          	sw	ra,28(sp)
20000cc4:	00812c23          	sw	s0,24(sp)
20000cc8:	02010413          	addi	s0,sp,32
20000ccc:	fea42623          	sw	a0,-20(s0)
20000cd0:	00100613          	li	a2,1
20000cd4:	fec42583          	lw	a1,-20(s0)
20000cd8:	00800513          	li	a0,8
20000cdc:	f3dff0ef          	jal	ra,20000c18 <gpio_direct_bit_write>
20000ce0:	00000013          	nop
20000ce4:	01c12083          	lw	ra,28(sp)
20000ce8:	01812403          	lw	s0,24(sp)
20000cec:	02010113          	addi	sp,sp,32
20000cf0:	00008067          	ret

20000cf4 <gpio_intr_type>:
20000cf4:	fe010113          	addi	sp,sp,-32
20000cf8:	00112e23          	sw	ra,28(sp)
20000cfc:	00812c23          	sw	s0,24(sp)
20000d00:	02010413          	addi	s0,sp,32
20000d04:	fea42623          	sw	a0,-20(s0)
20000d08:	00100613          	li	a2,1
20000d0c:	fec42583          	lw	a1,-20(s0)
20000d10:	03000513          	li	a0,48
20000d14:	f05ff0ef          	jal	ra,20000c18 <gpio_direct_bit_write>
20000d18:	00000013          	nop
20000d1c:	01c12083          	lw	ra,28(sp)
20000d20:	01812403          	lw	s0,24(sp)
20000d24:	02010113          	addi	sp,sp,32
20000d28:	00008067          	ret

20000d2c <gpio_masked_bit_write>:
20000d2c:	fd010113          	addi	sp,sp,-48
20000d30:	02112623          	sw	ra,44(sp)
20000d34:	02812423          	sw	s0,40(sp)
20000d38:	03010413          	addi	s0,sp,48
20000d3c:	fca42e23          	sw	a0,-36(s0)
20000d40:	fcb42c23          	sw	a1,-40(s0)
20000d44:	fcc42a23          	sw	a2,-44(s0)
20000d48:	fcd42823          	sw	a3,-48(s0)
20000d4c:	fd442703          	lw	a4,-44(s0)
20000d50:	000107b7          	lui	a5,0x10
20000d54:	fff78793          	addi	a5,a5,-1 # ffff <__global_pointer$-0xfff0001>
20000d58:	00f777b3          	and	a5,a4,a5
20000d5c:	fef42623          	sw	a5,-20(s0)
20000d60:	fd442703          	lw	a4,-44(s0)
20000d64:	ffff07b7          	lui	a5,0xffff0
20000d68:	00f777b3          	and	a5,a4,a5
20000d6c:	fef42423          	sw	a5,-24(s0)
20000d70:	fec42783          	lw	a5,-20(s0)
20000d74:	02078863          	beqz	a5,20000da4 <gpio_masked_bit_write+0x78>
20000d78:	fec42783          	lw	a5,-20(s0)
20000d7c:	01079713          	slli	a4,a5,0x10
20000d80:	fd042683          	lw	a3,-48(s0)
20000d84:	000107b7          	lui	a5,0x10
20000d88:	fff78793          	addi	a5,a5,-1 # ffff <__global_pointer$-0xfff0001>
20000d8c:	00f6f7b3          	and	a5,a3,a5
20000d90:	00f767b3          	or	a5,a4,a5
20000d94:	00078613          	mv	a2,a5
20000d98:	fdc42583          	lw	a1,-36(s0)
20000d9c:	400c0537          	lui	a0,0x400c0
20000da0:	d28ff0ef          	jal	ra,200002c8 <mem_write32>
20000da4:	fe842783          	lw	a5,-24(s0)
20000da8:	02078263          	beqz	a5,20000dcc <gpio_masked_bit_write+0xa0>
20000dac:	fd042783          	lw	a5,-48(s0)
20000db0:	0107d713          	srli	a4,a5,0x10
20000db4:	fe842783          	lw	a5,-24(s0)
20000db8:	00f767b3          	or	a5,a4,a5
20000dbc:	00078613          	mv	a2,a5
20000dc0:	fd842583          	lw	a1,-40(s0)
20000dc4:	400c0537          	lui	a0,0x400c0
20000dc8:	d00ff0ef          	jal	ra,200002c8 <mem_write32>
20000dcc:	00000013          	nop
20000dd0:	02c12083          	lw	ra,44(sp)
20000dd4:	02812403          	lw	s0,40(sp)
20000dd8:	03010113          	addi	sp,sp,48
20000ddc:	00008067          	ret

20000de0 <gpio_masked_write>:
20000de0:	fd010113          	addi	sp,sp,-48
20000de4:	02112623          	sw	ra,44(sp)
20000de8:	02812423          	sw	s0,40(sp)
20000dec:	03010413          	addi	s0,sp,48
20000df0:	fca42e23          	sw	a0,-36(s0)
20000df4:	fcb42c23          	sw	a1,-40(s0)
20000df8:	fdc42703          	lw	a4,-36(s0)
20000dfc:	41f75793          	srai	a5,a4,0x1f
20000e00:	01b7d793          	srli	a5,a5,0x1b
20000e04:	00f70733          	add	a4,a4,a5
20000e08:	01f77713          	andi	a4,a4,31
20000e0c:	40f707b3          	sub	a5,a4,a5
20000e10:	00078513          	mv	a0,a5
20000e14:	dd9ff0ef          	jal	ra,20000bec <index_to_mask>
20000e18:	fea42623          	sw	a0,-20(s0)
20000e1c:	fec42683          	lw	a3,-20(s0)
20000e20:	000107b7          	lui	a5,0x10
20000e24:	fff78613          	addi	a2,a5,-1 # ffff <__global_pointer$-0xfff0001>
20000e28:	01800593          	li	a1,24
20000e2c:	01400513          	li	a0,20
20000e30:	efdff0ef          	jal	ra,20000d2c <gpio_masked_bit_write>
20000e34:	00000013          	nop
20000e38:	02c12083          	lw	ra,44(sp)
20000e3c:	02812403          	lw	s0,40(sp)
20000e40:	03010113          	addi	sp,sp,48
20000e44:	00008067          	ret

20000e48 <gpio_direct_write>:
20000e48:	fe010113          	addi	sp,sp,-32
20000e4c:	00112e23          	sw	ra,28(sp)
20000e50:	00812c23          	sw	s0,24(sp)
20000e54:	02010413          	addi	s0,sp,32
20000e58:	fea42623          	sw	a0,-20(s0)
20000e5c:	feb42423          	sw	a1,-24(s0)
20000e60:	fec42703          	lw	a4,-20(s0)
20000e64:	fe842783          	lw	a5,-24(s0)
20000e68:	00f037b3          	snez	a5,a5
20000e6c:	0ff7f793          	andi	a5,a5,255
20000e70:	00078613          	mv	a2,a5
20000e74:	00070593          	mv	a1,a4
20000e78:	01000513          	li	a0,16
20000e7c:	d9dff0ef          	jal	ra,20000c18 <gpio_direct_bit_write>
20000e80:	00000013          	nop
20000e84:	01c12083          	lw	ra,28(sp)
20000e88:	01812403          	lw	s0,24(sp)
20000e8c:	02010113          	addi	sp,sp,32
20000e90:	00008067          	ret

20000e94 <gpio_direct_write_all>:
20000e94:	fe010113          	addi	sp,sp,-32
20000e98:	00112e23          	sw	ra,28(sp)
20000e9c:	00812c23          	sw	s0,24(sp)
20000ea0:	02010413          	addi	s0,sp,32
20000ea4:	fea42623          	sw	a0,-20(s0)
20000ea8:	fec42603          	lw	a2,-20(s0)
20000eac:	01000593          	li	a1,16
20000eb0:	400c0537          	lui	a0,0x400c0
20000eb4:	c14ff0ef          	jal	ra,200002c8 <mem_write32>
20000eb8:	00000013          	nop
20000ebc:	01c12083          	lw	ra,28(sp)
20000ec0:	01812403          	lw	s0,24(sp)
20000ec4:	02010113          	addi	sp,sp,32
20000ec8:	00008067          	ret

20000ecc <gpio_read_all>:
20000ecc:	ff010113          	addi	sp,sp,-16
20000ed0:	00112623          	sw	ra,12(sp)
20000ed4:	00812423          	sw	s0,8(sp)
20000ed8:	01010413          	addi	s0,sp,16
20000edc:	00c00593          	li	a1,12
20000ee0:	400c0537          	lui	a0,0x400c0
20000ee4:	c28ff0ef          	jal	ra,2000030c <mem_read32>
20000ee8:	00050793          	mv	a5,a0
20000eec:	00078513          	mv	a0,a5
20000ef0:	00c12083          	lw	ra,12(sp)
20000ef4:	00812403          	lw	s0,8(sp)
20000ef8:	01010113          	addi	sp,sp,16
20000efc:	00008067          	ret

20000f00 <gpio_read_pin>:
20000f00:	fd010113          	addi	sp,sp,-48
20000f04:	02112623          	sw	ra,44(sp)
20000f08:	02812423          	sw	s0,40(sp)
20000f0c:	03010413          	addi	s0,sp,48
20000f10:	fca42e23          	sw	a0,-36(s0)
20000f14:	00c00593          	li	a1,12
20000f18:	400c0537          	lui	a0,0x400c0
20000f1c:	bf0ff0ef          	jal	ra,2000030c <mem_read32>
20000f20:	fea42623          	sw	a0,-20(s0)
20000f24:	00100293          	li	t0,1
20000f28:	01729293          	slli	t0,t0,0x17
20000f2c:	400c0337          	lui	t1,0x400c0
20000f30:	00532023          	sw	t0,0(t1) # 400c0000 <_etext+0x200bef9c>
20000f34:	fdc42783          	lw	a5,-36(s0)
20000f38:	fec42703          	lw	a4,-20(s0)
20000f3c:	00f757b3          	srl	a5,a4,a5
20000f40:	00078513          	mv	a0,a5
20000f44:	02c12083          	lw	ra,44(sp)
20000f48:	02812403          	lw	s0,40(sp)
20000f4c:	03010113          	addi	sp,sp,48
20000f50:	00008067          	ret

20000f54 <gpio_direct_write_enable>:
20000f54:	fe010113          	addi	sp,sp,-32
20000f58:	00112e23          	sw	ra,28(sp)
20000f5c:	00812c23          	sw	s0,24(sp)
20000f60:	02010413          	addi	s0,sp,32
20000f64:	fea42623          	sw	a0,-20(s0)
20000f68:	fec42783          	lw	a5,-20(s0)
20000f6c:	00100613          	li	a2,1
20000f70:	00078593          	mv	a1,a5
20000f74:	01c00513          	li	a0,28
20000f78:	ca1ff0ef          	jal	ra,20000c18 <gpio_direct_bit_write>
20000f7c:	00000013          	nop
20000f80:	01c12083          	lw	ra,28(sp)
20000f84:	01812403          	lw	s0,24(sp)
20000f88:	02010113          	addi	sp,sp,32
20000f8c:	00008067          	ret

20000f90 <gpio_direct_write_all_enable>:
20000f90:	fe010113          	addi	sp,sp,-32
20000f94:	00112e23          	sw	ra,28(sp)
20000f98:	00812c23          	sw	s0,24(sp)
20000f9c:	02010413          	addi	s0,sp,32
20000fa0:	fea42623          	sw	a0,-20(s0)
20000fa4:	fec42603          	lw	a2,-20(s0)
20000fa8:	01c00593          	li	a1,28
20000fac:	400c0537          	lui	a0,0x400c0
20000fb0:	b18ff0ef          	jal	ra,200002c8 <mem_write32>
20000fb4:	00000013          	nop
20000fb8:	01c12083          	lw	ra,28(sp)
20000fbc:	01812403          	lw	s0,24(sp)
20000fc0:	02010113          	addi	sp,sp,32
20000fc4:	00008067          	ret

20000fc8 <digital_write>:
20000fc8:	fe010113          	addi	sp,sp,-32
20000fcc:	00112e23          	sw	ra,28(sp)
20000fd0:	00812c23          	sw	s0,24(sp)
20000fd4:	02010413          	addi	s0,sp,32
20000fd8:	fea42623          	sw	a0,-20(s0)
20000fdc:	feb42423          	sw	a1,-24(s0)
20000fe0:	fec42503          	lw	a0,-20(s0)
20000fe4:	f71ff0ef          	jal	ra,20000f54 <gpio_direct_write_enable>
20000fe8:	fe842783          	lw	a5,-24(s0)
20000fec:	00078593          	mv	a1,a5
20000ff0:	fec42503          	lw	a0,-20(s0)
20000ff4:	e55ff0ef          	jal	ra,20000e48 <gpio_direct_write>
20000ff8:	00000013          	nop
20000ffc:	01c12083          	lw	ra,28(sp)
20001000:	01812403          	lw	s0,24(sp)
20001004:	02010113          	addi	sp,sp,32
20001008:	00008067          	ret

2000100c <main>:
2000100c:	ff010113          	addi	sp,sp,-16
20001010:	00112623          	sw	ra,12(sp)
20001014:	00812423          	sw	s0,8(sp)
20001018:	01010413          	addi	s0,sp,16
2000101c:	00100593          	li	a1,1
20001020:	00700513          	li	a0,7
20001024:	fa5ff0ef          	jal	ra,20000fc8 <digital_write>
20001028:	001e87b7          	lui	a5,0x1e8
2000102c:	48078513          	addi	a0,a5,1152 # 1e8480 <__global_pointer$-0xfe17b80>
20001030:	964ff0ef          	jal	ra,20000194 <delay>
20001034:	00100593          	li	a1,1
20001038:	00c00513          	li	a0,12
2000103c:	f8dff0ef          	jal	ra,20000fc8 <digital_write>
20001040:	001e87b7          	lui	a5,0x1e8
20001044:	48078513          	addi	a0,a5,1152 # 1e8480 <__global_pointer$-0xfe17b80>
20001048:	94cff0ef          	jal	ra,20000194 <delay>
2000104c:	00800293          	li	t0,8
20001050:	3002a073          	csrs	mstatus,t0
20001054:	000012b7          	lui	t0,0x1
20001058:	80028293          	addi	t0,t0,-2048 # 800 <__global_pointer$-0xffff800>
2000105c:	3042a073          	csrs	mie,t0
20001060:	fbdff06f          	j	2000101c <main+0x10>

Disassembly of section .eh_frame:

20001064 <__global_pointer$+0x10001064>:
20001064:	0014                	0x14
20001066:	0000                	unimp
20001068:	0000                	unimp
2000106a:	0000                	unimp
2000106c:	7a01                	lui	s4,0xfffe0
2000106e:	0052                	c.slli	zero,0x14
20001070:	7c01                	lui	s8,0xfffe0
20001072:	0101                	addi	sp,sp,0
20001074:	07020d1b          	0x7020d1b
20001078:	0001                	nop
2000107a:	0000                	unimp
2000107c:	0010                	0x10
2000107e:	0000                	unimp
20001080:	001c                	0x1c
20001082:	0000                	unimp
20001084:	ef88                	fsw	fa0,24(a5)
20001086:	ffff                	0xffff
20001088:	0018                	0x18
2000108a:	0000                	unimp
2000108c:	0000                	unimp
2000108e:	0000                	unimp

Disassembly of section .bss:

10000000 <mcause_interrupt_table>:
10000000:	0000                	unimp
10000002:	0000                	unimp
10000004:	0000                	unimp
10000006:	0000                	unimp
10000008:	0000                	unimp
1000000a:	0000                	unimp
1000000c:	0000                	unimp
1000000e:	0000                	unimp
10000010:	0000                	unimp
10000012:	0000                	unimp
10000014:	0000                	unimp
10000016:	0000                	unimp
10000018:	0000                	unimp
1000001a:	0000                	unimp
1000001c:	0000                	unimp
1000001e:	0000                	unimp
10000020:	0000                	unimp
10000022:	0000                	unimp
10000024:	0000                	unimp
10000026:	0000                	unimp
10000028:	0000                	unimp
1000002a:	0000                	unimp
1000002c:	0000                	unimp
1000002e:	0000                	unimp
10000030:	0000                	unimp
10000032:	0000                	unimp
10000034:	0000                	unimp
10000036:	0000                	unimp
10000038:	0000                	unimp
1000003a:	0000                	unimp
1000003c:	0000                	unimp
1000003e:	0000                	unimp

10000040 <mcause_trap_table>:
10000040:	0000                	unimp
10000042:	0000                	unimp
10000044:	0000                	unimp
10000046:	0000                	unimp
10000048:	0000                	unimp
1000004a:	0000                	unimp
1000004c:	0000                	unimp
1000004e:	0000                	unimp
10000050:	0000                	unimp
10000052:	0000                	unimp
10000054:	0000                	unimp
10000056:	0000                	unimp
10000058:	0000                	unimp
1000005a:	0000                	unimp
1000005c:	0000                	unimp
1000005e:	0000                	unimp
10000060:	0000                	unimp
10000062:	0000                	unimp
10000064:	0000                	unimp
10000066:	0000                	unimp
10000068:	0000                	unimp
1000006a:	0000                	unimp
1000006c:	0000                	unimp
1000006e:	0000                	unimp
10000070:	0000                	unimp
10000072:	0000                	unimp
10000074:	0000                	unimp
10000076:	0000                	unimp
10000078:	0000                	unimp
1000007a:	0000                	unimp
1000007c:	0000                	unimp
1000007e:	0000                	unimp

10000080 <isr_table>:
10000080:	0000                	unimp
10000082:	0000                	unimp
10000084:	0000                	unimp
10000086:	0000                	unimp
10000088:	0000                	unimp
1000008a:	0000                	unimp
1000008c:	0000                	unimp
1000008e:	0000                	unimp
10000090:	0000                	unimp
10000092:	0000                	unimp
10000094:	0000                	unimp
10000096:	0000                	unimp
10000098:	0000                	unimp
1000009a:	0000                	unimp
1000009c:	0000                	unimp
1000009e:	0000                	unimp
100000a0:	0000                	unimp
100000a2:	0000                	unimp
100000a4:	0000                	unimp
100000a6:	0000                	unimp
100000a8:	0000                	unimp
100000aa:	0000                	unimp
100000ac:	0000                	unimp
100000ae:	0000                	unimp
100000b0:	0000                	unimp
100000b2:	0000                	unimp
100000b4:	0000                	unimp
100000b6:	0000                	unimp
100000b8:	0000                	unimp
100000ba:	0000                	unimp
100000bc:	0000                	unimp
100000be:	0000                	unimp
100000c0:	0000                	unimp
100000c2:	0000                	unimp
100000c4:	0000                	unimp
100000c6:	0000                	unimp
100000c8:	0000                	unimp
100000ca:	0000                	unimp
100000cc:	0000                	unimp
100000ce:	0000                	unimp
100000d0:	0000                	unimp
100000d2:	0000                	unimp
100000d4:	0000                	unimp
100000d6:	0000                	unimp
100000d8:	0000                	unimp
100000da:	0000                	unimp
100000dc:	0000                	unimp
100000de:	0000                	unimp
100000e0:	0000                	unimp
100000e2:	0000                	unimp
100000e4:	0000                	unimp
100000e6:	0000                	unimp
100000e8:	0000                	unimp
100000ea:	0000                	unimp
100000ec:	0000                	unimp
100000ee:	0000                	unimp
100000f0:	0000                	unimp
100000f2:	0000                	unimp
100000f4:	0000                	unimp
100000f6:	0000                	unimp
100000f8:	0000                	unimp
100000fa:	0000                	unimp
100000fc:	0000                	unimp
100000fe:	0000                	unimp
10000100:	0000                	unimp
10000102:	0000                	unimp
10000104:	0000                	unimp
10000106:	0000                	unimp
10000108:	0000                	unimp
1000010a:	0000                	unimp
1000010c:	0000                	unimp
1000010e:	0000                	unimp
10000110:	0000                	unimp
10000112:	0000                	unimp
10000114:	0000                	unimp
10000116:	0000                	unimp
10000118:	0000                	unimp
1000011a:	0000                	unimp
1000011c:	0000                	unimp
1000011e:	0000                	unimp
10000120:	0000                	unimp
10000122:	0000                	unimp
10000124:	0000                	unimp
10000126:	0000                	unimp
10000128:	0000                	unimp
1000012a:	0000                	unimp
1000012c:	0000                	unimp
1000012e:	0000                	unimp
10000130:	0000                	unimp
10000132:	0000                	unimp
10000134:	0000                	unimp
10000136:	0000                	unimp
10000138:	0000                	unimp
1000013a:	0000                	unimp
1000013c:	0000                	unimp
1000013e:	0000                	unimp
10000140:	0000                	unimp
10000142:	0000                	unimp
10000144:	0000                	unimp
10000146:	0000                	unimp
10000148:	0000                	unimp
1000014a:	0000                	unimp
1000014c:	0000                	unimp
1000014e:	0000                	unimp
10000150:	0000                	unimp
10000152:	0000                	unimp
10000154:	0000                	unimp
10000156:	0000                	unimp
10000158:	0000                	unimp
1000015a:	0000                	unimp
1000015c:	0000                	unimp
1000015e:	0000                	unimp
10000160:	0000                	unimp
10000162:	0000                	unimp
10000164:	0000                	unimp
10000166:	0000                	unimp
10000168:	0000                	unimp
1000016a:	0000                	unimp
1000016c:	0000                	unimp
1000016e:	0000                	unimp
10000170:	0000                	unimp
10000172:	0000                	unimp
10000174:	0000                	unimp
10000176:	0000                	unimp
10000178:	0000                	unimp
1000017a:	0000                	unimp
1000017c:	0000                	unimp
1000017e:	0000                	unimp

Disassembly of section .riscv.attributes:

00000000 <.riscv.attributes>:
   0:	2a41                	jal	190 <__global_pointer$-0xffffe70>
   2:	0000                	unimp
   4:	7200                	flw	fs0,32(a2)
   6:	7369                	lui	t1,0xffffa
   8:	01007663          	bgeu	zero,a6,14 <__global_pointer$-0xfffffec>
   c:	0020                	addi	s0,sp,8
   e:	0000                	unimp
  10:	1004                	addi	s1,sp,32
  12:	7205                	lui	tp,0xfffe1
  14:	3376                	fld	ft6,376(sp)
  16:	6932                	flw	fs2,12(sp)
  18:	7032                	flw	ft0,44(sp)
  1a:	5f30                	lw	a2,120(a4)
  1c:	326d                	jal	fffff9c6 <_etext+0xdfffe962>
  1e:	3070                	fld	fa2,224(s0)
  20:	665f 7032 5f30      	0x5f307032665f
  26:	3264                	fld	fs1,224(a2)
  28:	3070                	fld	fa2,224(s0)
  2a:	00              	Address 0x000000000000002a is out of bounds.


Disassembly of section .comment:

00000000 <.comment>:
   0:	3a434347          	fmsub.d	ft6,ft6,ft4,ft7,rmm
   4:	2820                	fld	fs0,80(s0)
   6:	736f7263          	bgeu	t5,s6,72a <__global_pointer$-0xffff8d6>
   a:	6f6f7473          	csrrci	s0,0x6f6,30
   e:	2d6c                	fld	fa1,216(a0)
  10:	474e                	lw	a4,208(sp)
  12:	3120                	fld	fs0,96(a0)
  14:	322e                	fld	ft4,232(sp)
  16:	2e34                	fld	fa3,88(a2)
  18:	2e30                	fld	fa2,88(a2)
  1a:	3134                	fld	fa3,96(a0)
  1c:	342d                	jal	fffffa46 <_etext+0xdfffe9e2>
  1e:	37643537          	lui	a0,0x37643
  22:	6632                	flw	fa2,12(sp)
  24:	2029                	jal	2e <__global_pointer$-0xfffffd2>
  26:	2e39                	jal	344 <__global_pointer$-0xffffcbc>
  28:	2e32                	fld	ft8,264(sp)
  2a:	0030                	addi	a2,sp,8

Disassembly of section .debug_info:

00000000 <.debug_info>:
       0:	00ea                	slli	ra,ra,0x1a
       2:	0000                	unimp
       4:	0004                	0x4
       6:	0000                	unimp
       8:	0000                	unimp
       a:	0104                	addi	s1,sp,128
       c:	0000                	unimp
       e:	0000                	unimp
      10:	5e0c                	lw	a1,56(a2)
      12:	0000                	unimp
      14:	dc00                	sw	s0,56(s0)
      16:	0000                	unimp
      18:	4400                	lw	s0,8(s0)
      1a:	0001                	nop
      1c:	bc20                	fsd	fs0,120(s0)
      1e:	0000                	unimp
      20:	0000                	unimp
      22:	0000                	unimp
      24:	0200                	addi	s0,sp,256
      26:	0601                	addi	a2,a2,0
      28:	0052                	c.slli	zero,0x14
      2a:	0000                	unimp
      2c:	0102                	c.slli64	sp
      2e:	5008                	lw	a0,32(s0)
      30:	0000                	unimp
      32:	0200                	addi	s0,sp,256
      34:	0502                	c.slli64	a0
      36:	00d2                	slli	ra,ra,0x14
      38:	0000                	unimp
      3a:	0202                	c.slli64	tp
      3c:	00009a07          	0x9a07
      40:	0200                	addi	s0,sp,256
      42:	0504                	addi	s1,sp,640
      44:	00c9                	addi	ra,ra,18
      46:	0000                	unimp
      48:	0402                	c.slli64	s0
      4a:	0000b207          	fld	ft4,0(ra)
      4e:	0200                	addi	s0,sp,256
      50:	0508                	addi	a0,sp,640
      52:	00c4                	addi	s1,sp,68
      54:	0000                	unimp
      56:	0802                	c.slli64	a6
      58:	0000ad07          	flw	fs10,0(ra)
      5c:	0300                	addi	s0,sp,384
      5e:	0504                	addi	s1,sp,640
      60:	6e69                	lui	t3,0x1a
      62:	0074                	addi	a3,sp,12
      64:	3e04                	fld	fs1,56(a2)
      66:	0000                	unimp
      68:	0200                	addi	s0,sp,256
      6a:	1ae8                	addi	a0,sp,380
      6c:	0070                	addi	a2,sp,12
      6e:	0000                	unimp
      70:	0402                	c.slli64	s0
      72:	0000b707          	fld	fa4,0(ra)
      76:	0400                	addi	s0,sp,512
      78:	0040                	addi	s0,sp,4
      7a:	0000                	unimp
      7c:	64155203          	lhu	tp,1601(a0) # 37643641 <_etext+0x176425dd>
      80:	0000                	unimp
      82:	0500                	addi	s0,sp,640
      84:	004a                	c.slli	zero,0x12
      86:	0000                	unimp
      88:	1701                	addi	a4,a4,-32
      8a:	9406                	add	s0,s0,ra
      8c:	0001                	nop
      8e:	6c20                	flw	fs0,88(s0)
      90:	0000                	unimp
      92:	0100                	addi	s0,sp,128
      94:	b69c                	fsd	fa5,40(a3)
      96:	0000                	unimp
      98:	0600                	addi	s0,sp,768
      9a:	0061                	c.nop	24
      9c:	1701                	addi	a4,a4,-32
      9e:	5d10                	lw	a2,56(a0)
      a0:	0000                	unimp
      a2:	0200                	addi	s0,sp,256
      a4:	5c91                	li	s9,-28
      a6:	00012507          	flw	fa0,0(sp)
      aa:	0100                	addi	s0,sp,128
      ac:	061a                	slli	a2,a2,0x6
      ae:	00b6                	slli	ra,ra,0xd
      b0:	0000                	unimp
      b2:	9102                	jalr	sp
      b4:	006c                	addi	a1,sp,12
      b6:	0408                	addi	a0,sp,512
      b8:	005d                	c.nop	23
      ba:	0000                	unimp
      bc:	1209                	addi	tp,tp,-30
      be:	0001                	nop
      c0:	0100                	addi	s0,sp,128
      c2:	0605                	addi	a2,a2,1
      c4:	0144                	addi	s1,sp,132
      c6:	2000                	fld	fs0,0(s0)
      c8:	0050                	addi	a2,sp,4
      ca:	0000                	unimp
      cc:	9c01                	0x9c01
      ce:	2e0a                	fld	ft8,128(sp)
      d0:	0001                	nop
      d2:	0100                	addi	s0,sp,128
      d4:	3b05                	jal	fffffe04 <_etext+0xdfffeda0>
      d6:	00000077          	0x77
      da:	9102                	jalr	sp
      dc:	066c                	addi	a1,sp,780
      de:	7065                	c.lui	zero,0xffff9
      e0:	05010063          	beq	sp,a6,120 <__global_pointer$-0xffffee0>
      e4:	7765                	lui	a4,0xffff9
      e6:	0000                	unimp
      e8:	0200                	addi	s0,sp,256
      ea:	6891                	lui	a7,0x4
      ec:	0000                	unimp
      ee:	0098                	addi	a4,sp,64
      f0:	0000                	unimp
      f2:	0004                	0x4
      f4:	000000ab          	0xab
      f8:	0104                	addi	s1,sp,128
      fa:	0000                	unimp
      fc:	0000                	unimp
      fe:	350c                	fld	fa1,40(a0)
     100:	0001                	nop
     102:	dc00                	sw	s0,56(s0)
     104:	0000                	unimp
     106:	0000                	unimp
     108:	0002                	c.slli64	zero
     10a:	9c20                	0x9c20
     10c:	0000                	unimp
     10e:	2d00                	fld	fs0,24(a0)
     110:	0001                	nop
     112:	0200                	addi	s0,sp,256
     114:	0180                	addi	s0,sp,192
     116:	0000                	unimp
     118:	0201                	addi	tp,tp,0
     11a:	0006                	c.slli	zero,0x1
     11c:	0002                	c.slli64	zero
     11e:	9c20                	0x9c20
     120:	0000                	unimp
     122:	0100                	addi	s0,sp,128
     124:	8e9c                	0x8e9c
     126:	0000                	unimp
     128:	0300                	addi	s0,sp,384
     12a:	0178                	addi	a4,sp,140
     12c:	0000                	unimp
     12e:	0201                	addi	tp,tp,0
     130:	8e18                	0x8e18
     132:	0000                	unimp
     134:	0200                	addi	s0,sp,256
     136:	5c91                	li	s9,-28
     138:	6104                	flw	fs1,0(a0)
     13a:	0100                	addi	s0,sp,128
     13c:	2602                	fld	fa2,0(sp)
     13e:	008e                	slli	ra,ra,0x3
     140:	0000                	unimp
     142:	9102                	jalr	sp
     144:	0558                	addi	a4,sp,644
     146:	0220                	addi	s0,sp,264
     148:	2000                	fld	fs0,0(s0)
     14a:	0034                	addi	a3,sp,8
     14c:	0000                	unimp
     14e:	0074                	addi	a3,sp,12
     150:	0000                	unimp
     152:	6d06                	flw	fs10,64(sp)
     154:	0001                	nop
     156:	0100                	addi	s0,sp,128
     158:	0608                	addi	a0,sp,768
     15a:	0095                	addi	ra,ra,5
     15c:	0000                	unimp
     15e:	9102                	jalr	sp
     160:	0068                	addi	a0,sp,12
     162:	00025807          	0x25807
     166:	3420                	fld	fs0,104(s0)
     168:	0000                	unimp
     16a:	0600                	addi	s0,sp,768
     16c:	016d                	addi	sp,sp,27
     16e:	0000                	unimp
     170:	2101                	jal	570 <__global_pointer$-0xffffa90>
     172:	9506                	add	a0,a0,ra
     174:	0000                	unimp
     176:	0200                	addi	s0,sp,256
     178:	6c91                	lui	s9,0x4
     17a:	0000                	unimp
     17c:	0408                	addi	a0,sp,512
     17e:	6905                	lui	s2,0x1
     180:	746e                	flw	fs0,248(sp)
     182:	0900                	addi	s0,sp,144
     184:	8e04                	0x8e04
     186:	0000                	unimp
     188:	0000                	unimp
     18a:	029d                	addi	t0,t0,7
     18c:	0000                	unimp
     18e:	0004                	0x4
     190:	0136                	slli	sp,sp,0xd
     192:	0000                	unimp
     194:	0104                	addi	s1,sp,128
     196:	0000                	unimp
     198:	0000                	unimp
     19a:	d00c                	sw	a1,32(s0)
     19c:	0001                	nop
     19e:	dc00                	sw	s0,56(s0)
     1a0:	0000                	unimp
     1a2:	9c00                	0x9c00
     1a4:	0002                	c.slli64	zero
     1a6:	8020                	0x8020
     1a8:	0002                	c.slli64	zero
     1aa:	d900                	sw	s0,48(a0)
     1ac:	0001                	nop
     1ae:	0200                	addi	s0,sp,256
     1b0:	0601                	addi	a2,a2,0
     1b2:	0052                	c.slli	zero,0x14
     1b4:	0000                	unimp
     1b6:	0102                	c.slli64	sp
     1b8:	5008                	lw	a0,32(s0)
     1ba:	0000                	unimp
     1bc:	0200                	addi	s0,sp,256
     1be:	0502                	c.slli64	a0
     1c0:	00d2                	slli	ra,ra,0x14
     1c2:	0000                	unimp
     1c4:	0202                	c.slli64	tp
     1c6:	00009a07          	0x9a07
     1ca:	0200                	addi	s0,sp,256
     1cc:	0504                	addi	s1,sp,640
     1ce:	00c9                	addi	ra,ra,18
     1d0:	0000                	unimp
     1d2:	00022103          	lw	sp,0(tp) # fffe1000 <_etext+0xdffdff9c>
     1d6:	0200                	addi	s0,sp,256
     1d8:	0054194f          	fnmadd.s	fs2,fs0,ft5,ft0,rtz
     1dc:	0000                	unimp
     1de:	0402                	c.slli64	s0
     1e0:	0000b207          	fld	ft4,0(ra)
     1e4:	0200                	addi	s0,sp,256
     1e6:	0508                	addi	a0,sp,640
     1e8:	00c4                	addi	s1,sp,68
     1ea:	0000                	unimp
     1ec:	0802                	c.slli64	a6
     1ee:	0000ad07          	flw	fs10,0(ra)
     1f2:	0400                	addi	s0,sp,512
     1f4:	0504                	addi	s1,sp,640
     1f6:	6e69                	lui	t3,0x1a
     1f8:	0074                	addi	a3,sp,12
     1fa:	0402                	c.slli64	s0
     1fc:	0000b707          	fld	fa4,0(ra)
     200:	0300                	addi	s0,sp,384
     202:	00000223          	sb	zero,4(zero) # 4 <__global_pointer$-0xffffffc>
     206:	48143003          	0x48143003
     20a:	0000                	unimp
     20c:	0300                	addi	s0,sp,384
     20e:	022c                	addi	a1,sp,264
     210:	0000                	unimp
     212:	8f04                	0x8f04
     214:	691a                	flw	fs2,132(sp)
     216:	0000                	unimp
     218:	0200                	addi	s0,sp,256
     21a:	0410                	addi	a2,sp,512
     21c:	028d                	addi	t0,t0,3
     21e:	0000                	unimp
     220:	3b05                	jal	ffffff50 <_etext+0xdfffeeec>
     222:	0002                	c.slli64	zero
     224:	0800                	addi	s0,sp,16
     226:	0601                	addi	a2,a2,0
     228:	be10                	fsd	fa2,56(a2)
     22a:	0000                	unimp
     22c:	0600                	addi	s0,sp,768
     22e:	0288                	addi	a0,sp,320
     230:	0000                	unimp
     232:	0801                	addi	a6,a6,0
     234:	770c                	flw	fa1,40(a4)
     236:	0000                	unimp
     238:	0000                	unimp
     23a:	1406                	slli	s0,s0,0x21
     23c:	0005                	c.nop	1
     23e:	0100                	addi	s0,sp,128
     240:	0c0a                	slli	s8,s8,0x2
     242:	00000077          	0x77
     246:	0004                	0x4
     248:	0001bd03          	0x1bd03
     24c:	0100                	addi	s0,sp,128
     24e:	0096030b          	0x96030b
     252:	0000                	unimp
     254:	00020d07          	0x20d07
     258:	0100                	addi	s0,sp,128
     25a:	0d34                	addi	a3,sp,664
     25c:	00000103          	lb	sp,0(zero) # 0 <__global_pointer$-0x10000000>
     260:	04b8                	addi	a4,sp,584
     262:	2000                	fld	fs0,0(s0)
     264:	0064                	addi	s1,sp,12
     266:	0000                	unimp
     268:	9c01                	0x9c01
     26a:	00000103          	lb	sp,0(zero) # 0 <__global_pointer$-0x10000000>
     26e:	a508                	fsd	fa0,8(a0)
     270:	0002                	c.slli64	zero
     272:	0100                	addi	s0,sp,128
     274:	2a34                	fld	fa3,80(a2)
     276:	00000077          	0x77
     27a:	9102                	jalr	sp
     27c:	085c                	addi	a5,sp,20
     27e:	000003bb          	0x3bb
     282:	3401                	jal	fffffc82 <_etext+0xdfffec1e>
     284:	773d                	lui	a4,0xfffef
     286:	0000                	unimp
     288:	0200                	addi	s0,sp,256
     28a:	5891                	li	a7,-28
     28c:	0200                	addi	s0,sp,256
     28e:	0201                	addi	tp,tp,0
     290:	02ae                	slli	t0,t0,0xb
     292:	0000                	unimp
     294:	6909                	lui	s2,0x2
     296:	0002                	c.slli64	zero
     298:	0100                	addi	s0,sp,128
     29a:	0077112f          	0x77112f
     29e:	0000                	unimp
     2a0:	047c                	addi	a5,sp,524
     2a2:	2000                	fld	fs0,0(s0)
     2a4:	003c                	addi	a5,sp,8
     2a6:	0000                	unimp
     2a8:	9c01                	0x9c01
     2aa:	00000143          	fmadd.s	ft2,ft0,ft0,ft0,rne
     2ae:	a508                	fsd	fa0,8(a0)
     2b0:	0002                	c.slli64	zero
     2b2:	0100                	addi	s0,sp,128
     2b4:	0077302f          	0x77302f
     2b8:	0000                	unimp
     2ba:	9102                	jalr	sp
     2bc:	086c                	addi	a1,sp,28
     2be:	02a8                	addi	a0,sp,328
     2c0:	0000                	unimp
     2c2:	3001                	jal	fffffac2 <_etext+0xdfffea5e>
     2c4:	be3a                	fsd	fa4,312(sp)
     2c6:	0000                	unimp
     2c8:	0200                	addi	s0,sp,256
     2ca:	6491                	lui	s1,0x4
     2cc:	0700                	addi	s0,sp,896
     2ce:	018e                	slli	gp,gp,0x3
     2d0:	0000                	unimp
     2d2:	2801                	jal	2e2 <__global_pointer$-0xffffd1e>
     2d4:	7711                	lui	a4,0xfffe4
     2d6:	0000                	unimp
     2d8:	0400                	addi	s0,sp,512
     2da:	0004                	0x4
     2dc:	7820                	flw	fs0,112(s0)
     2de:	0000                	unimp
     2e0:	0100                	addi	s0,sp,128
     2e2:	8b9c                	0x8b9c
     2e4:	0001                	nop
     2e6:	0800                	addi	s0,sp,16
     2e8:	02a5                	addi	t0,t0,9
     2ea:	0000                	unimp
     2ec:	2801                	jal	2fc <__global_pointer$-0xffffd04>
     2ee:	0000772f          	0x772f
     2f2:	0200                	addi	s0,sp,256
     2f4:	5c91                	li	s9,-28
     2f6:	bb08                	fsd	fa0,48(a4)
     2f8:	01000003          	lb	zero,16(zero) # 10 <__global_pointer$-0xffffff0>
     2fc:	2f29                	jal	a16 <__global_pointer$-0xffff5ea>
     2fe:	00000077          	0x77
     302:	9102                	jalr	sp
     304:	0858                	addi	a4,sp,20
     306:	024c                	addi	a1,sp,260
     308:	0000                	unimp
     30a:	2a01                	jal	41a <__global_pointer$-0xffffbe6>
     30c:	0001032b          	0x1032b
     310:	0200                	addi	s0,sp,256
     312:	5791                	li	a5,-28
     314:	0900                	addi	s0,sp,144
     316:	0252                	slli	tp,tp,0x14
     318:	0000                	unimp
     31a:	2001                	jal	31a <__global_pointer$-0xffffce6>
     31c:	7711                	lui	a4,0xfffe4
     31e:	0000                	unimp
     320:	9800                	0x9800
     322:	6c200003          	lb	zero,1730(zero) # 6c2 <__global_pointer$-0xffff93e>
     326:	0000                	unimp
     328:	0100                	addi	s0,sp,128
     32a:	d39c                	sw	a5,32(a5)
     32c:	0001                	nop
     32e:	0800                	addi	s0,sp,16
     330:	02a5                	addi	t0,t0,9
     332:	0000                	unimp
     334:	2001                	jal	334 <__global_pointer$-0xffffccc>
     336:	7731                	lui	a4,0xfffec
     338:	0000                	unimp
     33a:	0200                	addi	s0,sp,256
     33c:	6c91                	lui	s9,0x4
     33e:	a808                	fsd	fa0,16(s0)
     340:	0002                	c.slli64	zero
     342:	0100                	addi	s0,sp,128
     344:	3b21                	jal	5c <__global_pointer$-0xfffffa4>
     346:	00be                	slli	ra,ra,0xf
     348:	0000                	unimp
     34a:	9102                	jalr	sp
     34c:	0864                	addi	s1,sp,28
     34e:	024c                	addi	a1,sp,260
     350:	0000                	unimp
     352:	2201                	jal	452 <__global_pointer$-0xffffbae>
     354:	7731                	lui	a4,0xfffec
     356:	0000                	unimp
     358:	0200                	addi	s0,sp,256
     35a:	6091                	lui	ra,0x4
     35c:	0900                	addi	s0,sp,144
     35e:	000001a3          	sb	zero,3(zero) # 3 <__global_pointer$-0xffffffd>
     362:	1901                	addi	s2,s2,-32
     364:	0000be1b          	0xbe1b
     368:	4400                	lw	s0,8(s0)
     36a:	54200003          	lb	zero,1346(zero) # 542 <__global_pointer$-0xffffabe>
     36e:	0000                	unimp
     370:	0100                	addi	s0,sp,128
     372:	fd9c                	fsw	fa5,56(a1)
     374:	0001                	nop
     376:	0800                	addi	s0,sp,16
     378:	000003bb          	0x3bb
     37c:	1a01                	addi	s4,s4,-32
     37e:	770e                	flw	fa4,224(sp)
     380:	0000                	unimp
     382:	0200                	addi	s0,sp,256
     384:	5c91                	li	s9,-28
     386:	0900                	addi	s0,sp,144
     388:	0202                	c.slli64	tp
     38a:	0000                	unimp
     38c:	1501                	addi	a0,a0,-32
     38e:	7711                	lui	a4,0xfffe4
     390:	0000                	unimp
     392:	0c00                	addi	s0,sp,528
     394:	38200003          	lb	zero,898(zero) # 382 <__global_pointer$-0xffffc7e>
     398:	0000                	unimp
     39a:	0100                	addi	s0,sp,128
     39c:	369c                	fld	fa5,40(a3)
     39e:	0002                	c.slli64	zero
     3a0:	0800                	addi	s0,sp,16
     3a2:	0236                	slli	tp,tp,0xd
     3a4:	0000                	unimp
     3a6:	1501                	addi	a0,a0,-32
     3a8:	7725                	lui	a4,0xfffe9
     3aa:	0000                	unimp
     3ac:	0200                	addi	s0,sp,256
     3ae:	6c91                	lui	s9,0x4
     3b0:	f108                	fsw	fa0,32(a0)
     3b2:	01000003          	lb	zero,16(zero) # 10 <__global_pointer$-0xffffff0>
     3b6:	3515                	jal	1da <__global_pointer$-0xffffe26>
     3b8:	00000083          	lb	ra,0(zero) # 0 <__global_pointer$-0x10000000>
     3bc:	9102                	jalr	sp
     3be:	0068                	addi	a0,sp,12
     3c0:	990a                	add	s2,s2,sp
     3c2:	0002                	c.slli64	zero
     3c4:	0100                	addi	s0,sp,128
     3c6:	0d10                	addi	a2,sp,656
     3c8:	02c8                	addi	a0,sp,324
     3ca:	2000                	fld	fs0,0(s0)
     3cc:	0044                	addi	s1,sp,4
     3ce:	0000                	unimp
     3d0:	9c01                	0x9c01
     3d2:	027a                	slli	tp,tp,0x1e
     3d4:	0000                	unimp
     3d6:	3608                	fld	fa0,40(a2)
     3d8:	0002                	c.slli64	zero
     3da:	0100                	addi	s0,sp,128
     3dc:	2210                	fld	fa2,0(a2)
     3de:	00000077          	0x77
     3e2:	9102                	jalr	sp
     3e4:	086c                	addi	a1,sp,28
     3e6:	03f1                	addi	t2,t2,28
     3e8:	0000                	unimp
     3ea:	1001                	c.nop	-32
     3ec:	7731                	lui	a4,0xfffec
     3ee:	0000                	unimp
     3f0:	0200                	addi	s0,sp,256
     3f2:	6891                	lui	a7,0x4
     3f4:	4c08                	lw	a0,24(s0)
     3f6:	0002                	c.slli64	zero
     3f8:	0100                	addi	s0,sp,128
     3fa:	2a11                	jal	50e <__global_pointer$-0xffffaf2>
     3fc:	00000077          	0x77
     400:	9102                	jalr	sp
     402:	0064                	addi	s1,sp,12
     404:	00027f0b          	0x27f0b
     408:	0100                	addi	s0,sp,128
     40a:	110e                	slli	sp,sp,0x23
     40c:	00000077          	0x77
     410:	029c                	addi	a5,sp,320
     412:	2000                	fld	fs0,0(s0)
     414:	002c                	addi	a1,sp,8
     416:	0000                	unimp
     418:	9c01                	0x9c01
     41a:	1408                	addi	a0,sp,544
     41c:	0005                	c.nop	1
     41e:	0100                	addi	s0,sp,128
     420:	280e                	fld	fa6,192(sp)
     422:	00000077          	0x77
     426:	9102                	jalr	sp
     428:	006c                	addi	a1,sp,12
     42a:	f300                	fsw	fs0,32(a4)
     42c:	0001                	nop
     42e:	0400                	addi	s0,sp,512
     430:	1400                	addi	s0,sp,544
     432:	0002                	c.slli64	zero
     434:	0400                	addi	s0,sp,512
     436:	0001                	nop
     438:	0000                	unimp
     43a:	0c00                	addi	s0,sp,528
     43c:	0334                	addi	a3,sp,392
     43e:	0000                	unimp
     440:	00dc                	addi	a5,sp,68
     442:	0000                	unimp
     444:	051c                	addi	a5,sp,640
     446:	2000                	fld	fs0,0(s0)
     448:	0110                	addi	a2,sp,128
     44a:	0000                	unimp
     44c:	0000045b          	0x45b
     450:	0102                	c.slli64	sp
     452:	5206                	lw	tp,96(sp)
     454:	0000                	unimp
     456:	0200                	addi	s0,sp,256
     458:	0801                	addi	a6,a6,0
     45a:	0050                	addi	a2,sp,4
     45c:	0000                	unimp
     45e:	0202                	c.slli64	tp
     460:	d205                	beqz	a2,380 <__global_pointer$-0xffffc80>
     462:	0000                	unimp
     464:	0200                	addi	s0,sp,256
     466:	0702                	c.slli64	a4
     468:	009a                	slli	ra,ra,0x6
     46a:	0000                	unimp
     46c:	0402                	c.slli64	s0
     46e:	c905                	beqz	a0,49e <__global_pointer$-0xffffb62>
     470:	0000                	unimp
     472:	0300                	addi	s0,sp,384
     474:	0221                	addi	tp,tp,8
     476:	0000                	unimp
     478:	4f02                	lw	t5,0(sp)
     47a:	5419                	li	s0,-26
     47c:	0000                	unimp
     47e:	0200                	addi	s0,sp,256
     480:	0704                	addi	s1,sp,896
     482:	00b2                	slli	ra,ra,0xc
     484:	0000                	unimp
     486:	0802                	c.slli64	a6
     488:	c405                	beqz	s0,4b0 <__global_pointer$-0xffffb50>
     48a:	0000                	unimp
     48c:	0200                	addi	s0,sp,256
     48e:	0708                	addi	a0,sp,896
     490:	00ad                	addi	ra,ra,11
     492:	0000                	unimp
     494:	0404                	addi	s1,sp,512
     496:	6905                	lui	s2,0x1
     498:	746e                	flw	fs0,248(sp)
     49a:	0300                	addi	s0,sp,384
     49c:	003e                	c.slli	zero,0xf
     49e:	0000                	unimp
     4a0:	e802                	fsw	ft0,16(sp)
     4a2:	7c1a                	flw	fs8,164(sp)
     4a4:	0000                	unimp
     4a6:	0200                	addi	s0,sp,256
     4a8:	0704                	addi	s1,sp,896
     4aa:	000000b7          	lui	ra,0x0
     4ae:	00022303          	lw	t1,0(tp) # 0 <__global_pointer$-0x10000000>
     4b2:	0300                	addi	s0,sp,384
     4b4:	1430                	addi	a2,sp,552
     4b6:	0048                	addi	a0,sp,4
     4b8:	0000                	unimp
     4ba:	00004003          	lbu	zero,0(zero) # 0 <__global_pointer$-0x10000000>
     4be:	0300                	addi	s0,sp,384
     4c0:	1552                	slli	a0,a0,0x34
     4c2:	0070                	addi	a2,sp,12
     4c4:	0000                	unimp
     4c6:	00031703          	lh	a4,0(t1) # ffffa000 <_etext+0xdfff8f9c>
     4ca:	0400                	addi	s0,sp,512
     4cc:	100d                	c.nop	-29
     4ce:	000000a7          	0xa7
     4d2:	0405                	addi	s0,s0,1
     4d4:	00ad                	addi	ra,ra,11
     4d6:	0000                	unimp
     4d8:	bd06                	fsd	ft1,184(sp)
     4da:	0000                	unimp
     4dc:	0700                	addi	s0,sp,896
     4de:	0000008f          	0x8f
     4e2:	00008f07          	0x8f07
     4e6:	0000                	unimp
     4e8:	9b08                	0x9b08
     4ea:	0000                	unimp
     4ec:	cd00                	sw	s0,24(a0)
     4ee:	0000                	unimp
     4f0:	0900                	addi	s0,sp,144
     4f2:	007c                	addi	a5,sp,12
     4f4:	0000                	unimp
     4f6:	f60a000f          	0xf60a000f
     4fa:	0002                	c.slli64	zero
     4fc:	0400                	addi	s0,sp,512
     4fe:	150e                	slli	a0,a0,0x23
     500:	00bd                	addi	ra,ra,15
     502:	0000                	unimp
     504:	660a                	flw	fa2,128(sp)
     506:	04000003          	lb	zero,64(zero) # 40 <__global_pointer$-0xfffffc0>
     50a:	00bd150f          	0xbd150f
     50e:	0000                	unimp
     510:	0000cd0b          	0xcd0b
     514:	0100                	addi	s0,sp,128
     516:	0e02                	c.slli64	t3
     518:	0305                	addi	t1,t1,1
     51a:	0040                	addi	s0,sp,4
     51c:	1000                	addi	s0,sp,32
     51e:	0000d90b          	0xd90b
     522:	0100                	addi	s0,sp,128
     524:	03050e03          	lb	t3,48(a0)
     528:	0000                	unimp
     52a:	1000                	addi	s0,sp,32
     52c:	d10c                	sw	a1,32(a0)
     52e:	0002                	c.slli64	zero
     530:	0100                	addi	s0,sp,128
     532:	0b10                	addi	a2,sp,400
     534:	0000008f          	0x8f
     538:	056c                	addi	a1,sp,652
     53a:	2000                	fld	fs0,0(s0)
     53c:	00c0                	addi	s0,sp,68
     53e:	0000                	unimp
     540:	9c01                	0x9c01
     542:	018c                	addi	a1,sp,192
     544:	0000                	unimp
     546:	dd0d                	beqz	a0,480 <__global_pointer$-0xffffb80>
     548:	0002                	c.slli64	zero
     54a:	0100                	addi	s0,sp,128
     54c:	2110                	fld	fa2,0(a0)
     54e:	0000008f          	0x8f
     552:	9102                	jalr	sp
     554:	0e5c                	addi	a5,sp,788
     556:	7065                	c.lui	zero,0xffff9
     558:	10010063          	beqz	sp,658 <__global_pointer$-0xffff9a8>
     55c:	00008f33          	add	t5,ra,zero
     560:	0200                	addi	s0,sp,256
     562:	5891                	li	a7,-28
     564:	00037d0f          	0x37d0f
     568:	0100                	addi	s0,sp,128
     56a:	0f12                	slli	t5,t5,0x4
     56c:	007c                	addi	a5,sp,12
     56e:	0000                	unimp
     570:	9102                	jalr	sp
     572:	0f6c                	addi	a1,sp,924
     574:	02c4                	addi	s1,sp,324
     576:	0000                	unimp
     578:	1301                	addi	t1,t1,-32
     57a:	0000830b          	0x830b
     57e:	0200                	addi	s0,sp,256
     580:	6891                	lui	a7,0x4
     582:	c810                	sw	a2,16(s0)
     584:	0005                	c.nop	1
     586:	0c20                	addi	s0,sp,536
     588:	0000                	unimp
     58a:	7300                	flw	fs0,32(a4)
     58c:	0001                	nop
     58e:	1100                	addi	s0,sp,160
     590:	02e4                	addi	s1,sp,332
     592:	0000                	unimp
     594:	1c01                	addi	s8,s8,-32
     596:	6904                	flw	fs1,16(a0)
     598:	0000                	unimp
     59a:	1200                	addi	s0,sp,288
     59c:	0000                	unimp
     59e:	0005e413          	ori	s0,a1,0
     5a2:	1020                	addi	s0,sp,40
     5a4:	0000                	unimp
     5a6:	1100                	addi	s0,sp,160
     5a8:	0112                	slli	sp,sp,0x4
     5aa:	0000                	unimp
     5ac:	1e01                	addi	t3,t3,-32
     5ae:	6904                	flw	fs1,16(a0)
     5b0:	0000                	unimp
     5b2:	1200                	addi	s0,sp,288
     5b4:	0000                	unimp
     5b6:	1400                	addi	s0,sp,544
     5b8:	0324                	addi	s1,sp,392
     5ba:	0000                	unimp
     5bc:	0b01                	addi	s6,s6,0
     5be:	5406                	lw	s0,96(sp)
     5c0:	0005                	c.nop	1
     5c2:	1820                	addi	s0,sp,56
     5c4:	0000                	unimp
     5c6:	0100                	addi	s0,sp,128
     5c8:	c19c                	sw	a5,0(a1)
     5ca:	0001                	nop
     5cc:	0d00                	addi	s0,sp,656
     5ce:	02dd                	addi	t0,t0,23
     5d0:	0000                	unimp
     5d2:	0b01                	addi	s6,s6,0
     5d4:	8f38                	0x8f38
     5d6:	0000                	unimp
     5d8:	0200                	addi	s0,sp,256
     5da:	6c91                	lui	s9,0x4
     5dc:	650e                	flw	fa0,192(sp)
     5de:	6370                	flw	fa2,68(a4)
     5e0:	0100                	addi	s0,sp,128
     5e2:	008f620b          	0x8f620b
     5e6:	0000                	unimp
     5e8:	9102                	jalr	sp
     5ea:	0068                	addi	a0,sp,12
     5ec:	b415                	j	10 <__global_pointer$-0xffffff0>
     5ee:	0002                	c.slli64	zero
     5f0:	0100                	addi	s0,sp,128
     5f2:	0e05                	addi	t3,t3,1
     5f4:	007c                	addi	a5,sp,12
     5f6:	0000                	unimp
     5f8:	051c                	addi	a5,sp,640
     5fa:	2000                	fld	fs0,0(s0)
     5fc:	0038                	addi	a4,sp,8
     5fe:	0000                	unimp
     600:	9c01                	0x9c01
     602:	6e0e                	flw	ft8,192(sp)
     604:	6d75                	lui	s10,0x1d
     606:	0100                	addi	s0,sp,128
     608:	2b05                	jal	b38 <__global_pointer$-0xffff4c8>
     60a:	007c                	addi	a5,sp,12
     60c:	0000                	unimp
     60e:	9102                	jalr	sp
     610:	0f5c                	addi	a5,sp,916
     612:	0308                	addi	a0,sp,384
     614:	0000                	unimp
     616:	0701                	addi	a4,a4,0
     618:	00007c0f          	0x7c0f
     61c:	0200                	addi	s0,sp,256
     61e:	6c91                	lui	s9,0x4
     620:	0000                	unimp
     622:	05a4                	addi	s1,sp,712
     624:	0000                	unimp
     626:	0004                	0x4
     628:	0000034f          	fnmadd.s	ft6,ft0,ft0,ft0,rne
     62c:	0104                	addi	s1,sp,128
     62e:	0000                	unimp
     630:	0000                	unimp
     632:	5e0c                	lw	a1,56(a2)
     634:	0004                	0x4
     636:	dc00                	sw	s0,56(s0)
     638:	0000                	unimp
     63a:	2c00                	fld	fs0,24(s0)
     63c:	0006                	c.slli	zero,0x1
     63e:	c020                	sw	s0,64(s0)
     640:	0005                	c.nop	1
     642:	2600                	fld	fs0,8(a2)
     644:	0006                	c.slli	zero,0x1
     646:	0200                	addi	s0,sp,256
     648:	0601                	addi	a2,a2,0
     64a:	0052                	c.slli	zero,0x14
     64c:	0000                	unimp
     64e:	00044703          	lbu	a4,0(s0)
     652:	0300                	addi	s0,sp,384
     654:	0038182b          	0x38182b
     658:	0000                	unimp
     65a:	0102                	c.slli64	sp
     65c:	5008                	lw	a0,32(s0)
     65e:	0000                	unimp
     660:	0200                	addi	s0,sp,256
     662:	0502                	c.slli64	a0
     664:	00d2                	slli	ra,ra,0x14
     666:	0000                	unimp
     668:	0202                	c.slli64	tp
     66a:	00009a07          	0x9a07
     66e:	0200                	addi	s0,sp,256
     670:	0504                	addi	s1,sp,640
     672:	00c9                	addi	ra,ra,18
     674:	0000                	unimp
     676:	00022103          	lw	sp,0(tp) # 0 <__global_pointer$-0x10000000>
     67a:	0300                	addi	s0,sp,384
     67c:	0060194f          	fnmadd.s	fs2,ft0,ft6,ft0,rtz
     680:	0000                	unimp
     682:	0402                	c.slli64	s0
     684:	0000b207          	fld	ft4,0(ra) # 0 <__global_pointer$-0x10000000>
     688:	0200                	addi	s0,sp,256
     68a:	0508                	addi	a0,sp,640
     68c:	00c4                	addi	s1,sp,68
     68e:	0000                	unimp
     690:	0802                	c.slli64	a6
     692:	0000ad07          	flw	fs10,0(ra)
     696:	0400                	addi	s0,sp,512
     698:	0504                	addi	s1,sp,640
     69a:	6e69                	lui	t3,0x1a
     69c:	0074                	addi	a3,sp,12
     69e:	00003e03          	0x3e03
     6a2:	0300                	addi	s0,sp,384
     6a4:	1ae8                	addi	a0,sp,380
     6a6:	0088                	addi	a0,sp,64
     6a8:	0000                	unimp
     6aa:	0402                	c.slli64	s0
     6ac:	0000b707          	fld	fa4,0(ra)
     6b0:	0300                	addi	s0,sp,384
     6b2:	0449                	addi	s0,s0,18
     6b4:	0000                	unimp
     6b6:	1804                	addi	s1,sp,48
     6b8:	00002c13          	slti	s8,zero,0
     6bc:	0300                	addi	s0,sp,384
     6be:	00000223          	sb	zero,4(zero) # 4 <__global_pointer$-0xffffffc>
     6c2:	3004                	fld	fs1,32(s0)
     6c4:	5414                	lw	a3,40(s0)
     6c6:	0000                	unimp
     6c8:	0500                	addi	s0,sp,640
     6ca:	0000009b          	0x9b
     6ce:	00004003          	lbu	zero,0(zero) # 0 <__global_pointer$-0x10000000>
     6d2:	0400                	addi	s0,sp,512
     6d4:	1552                	slli	a0,a0,0x34
     6d6:	007c                	addi	a5,sp,12
     6d8:	0000                	unimp
     6da:	00031703          	lh	a4,0(t1)
     6de:	0500                	addi	s0,sp,640
     6e0:	100d                	c.nop	-29
     6e2:	00c4                	addi	s1,sp,68
     6e4:	0000                	unimp
     6e6:	0406                	slli	s0,s0,0x1
     6e8:	00ca                	slli	ra,ra,0x12
     6ea:	0000                	unimp
     6ec:	0000da07          	0xda07
     6f0:	0800                	addi	s0,sp,16
     6f2:	00ac                	addi	a1,sp,72
     6f4:	0000                	unimp
     6f6:	ac08                	fsd	fa0,24(s0)
     6f8:	0000                	unimp
     6fa:	0000                	unimp
     6fc:	b809                	j	ffffff0e <_etext+0xdfffeeaa>
     6fe:	0000                	unimp
     700:	ea00                	fsw	fs0,16(a2)
     702:	0000                	unimp
     704:	0a00                	addi	s0,sp,272
     706:	0088                	addi	a0,sp,64
     708:	0000                	unimp
     70a:	f60b000f          	0xf60b000f
     70e:	0002                	c.slli64	zero
     710:	0500                	addi	s0,sp,640
     712:	150e                	slli	a0,a0,0x23
     714:	00da                	slli	ra,ra,0x16
     716:	0000                	unimp
     718:	0003660b          	0x3660b
     71c:	0500                	addi	s0,sp,640
     71e:	00da150f          	0xda150f
     722:	0000                	unimp
     724:	00022c03          	lw	s8,0(tp) # 0 <__global_pointer$-0x10000000>
     728:	0600                	addi	s0,sp,768
     72a:	00751a8f          	0x751a8f
     72e:	0000                	unimp
     730:	1002                	c.slli	zero,0x20
     732:	8d04                	0x8d04
     734:	0002                	c.slli64	zero
     736:	0300                	addi	s0,sp,384
     738:	0525                	addi	a0,a0,9
     73a:	0000                	unimp
     73c:	21103607          	fld	fa2,529(zero) # 211 <__global_pointer$-0xffffdef>
     740:	0001                	nop
     742:	0600                	addi	s0,sp,768
     744:	2704                	fld	fs1,8(a4)
     746:	0001                	nop
     748:	0700                	addi	s0,sp,896
     74a:	0132                	slli	sp,sp,0xc
     74c:	0000                	unimp
     74e:	9b08                	0x9b08
     750:	0000                	unimp
     752:	0000                	unimp
     754:	1509                	addi	a0,a0,-30
     756:	0001                	nop
     758:	4200                	lw	s0,0(a2)
     75a:	0001                	nop
     75c:	0a00                	addi	s0,sp,272
     75e:	0088                	addi	a0,sp,64
     760:	0000                	unimp
     762:	3d0b003f 07000004 	0x70000043d0b003f
     76a:	01321437          	lui	s0,0x1321
     76e:	0000                	unimp
     770:	420c                	lw	a1,0(a2)
     772:	0001                	nop
     774:	0200                	addi	s0,sp,256
     776:	03050d0b          	0x3050d0b
     77a:	0080                	addi	s0,sp,64
     77c:	1000                	addi	s0,sp,32
     77e:	f80d                	bnez	s0,6b0 <__global_pointer$-0xffff950>
     780:	08000003          	lb	zero,128(zero) # 80 <__global_pointer$-0xfffff80>
     784:	0d02                	c.slli64	s10
     786:	8410                	0x8410
     788:	0001                	nop
     78a:	0e00                	addi	s0,sp,784
     78c:	03f1                	addi	t2,t2,28
     78e:	0000                	unimp
     790:	0e02                	c.slli64	t3
     792:	020d                	addi	tp,tp,3
     794:	0001                	nop
     796:	0000                	unimp
     798:	bb0e                	fsd	ft3,432(sp)
     79a:	02000003          	lb	zero,32(zero) # 20 <__global_pointer$-0xfffffe0>
     79e:	009b0c0f          	0x9b0c0f
     7a2:	0000                	unimp
     7a4:	0004                	0x4
     7a6:	00057003          	0x57003
     7aa:	0200                	addi	s0,sp,256
     7ac:	0310                	addi	a2,sp,384
     7ae:	015c                	addi	a5,sp,132
     7b0:	0000                	unimp
     7b2:	0004e90f          	0x4e90f
     7b6:	0200                	addi	s0,sp,256
     7b8:	0b88068b          	0xb88068b
     7bc:	2000                	fld	fs0,0(s0)
     7be:	0064                	addi	s1,sp,12
     7c0:	0000                	unimp
     7c2:	9c01                	0x9c01
     7c4:	01c5                	addi	gp,gp,17
     7c6:	0000                	unimp
     7c8:	c510                	sw	a2,8(a0)
     7ca:	02000003          	lb	zero,32(zero) # 20 <__global_pointer$-0xfffffe0>
     7ce:	0075148b          	0x75148b
     7d2:	0000                	unimp
     7d4:	9102                	jalr	sp
     7d6:	106c                	addi	a1,sp,44
     7d8:	0130                	addi	a2,sp,136
     7da:	0000                	unimp
     7dc:	8b02                	jr	s6
     7de:	00009b23          	sh	zero,22(ra)
     7e2:	0200                	addi	s0,sp,256
     7e4:	6891                	lui	a7,0x4
     7e6:	0f00                	addi	s0,sp,912
     7e8:	0531                	addi	a0,a0,12
     7ea:	0000                	unimp
     7ec:	8002                	0x8002
     7ee:	5006                	0x5006
     7f0:	3820000b          	0x3820000b
     7f4:	0000                	unimp
     7f6:	0100                	addi	s0,sp,128
     7f8:	eb9c                	fsw	fa5,16(a5)
     7fa:	0001                	nop
     7fc:	1000                	addi	s0,sp,32
     7fe:	000005ab          	0x5ab
     802:	8002                	0x8002
     804:	0000a727          	fsw	ft0,14(ra)
     808:	0200                	addi	s0,sp,256
     80a:	6c91                	lui	s9,0x4
     80c:	1100                	addi	s0,sp,160
     80e:	00000543          	fmadd.s	fa0,ft0,ft0,ft0,rne
     812:	7902                	flw	fs2,32(sp)
     814:	9b0a                	add	s6,s6,sp
     816:	0000                	unimp
     818:	1800                	addi	s0,sp,48
     81a:	3820000b          	0x3820000b
     81e:	0000                	unimp
     820:	0100                	addi	s0,sp,128
     822:	159c                	addi	a5,sp,736
     824:	0002                	c.slli64	zero
     826:	1200                	addi	s0,sp,288
     828:	051a                	slli	a0,a0,0x6
     82a:	0000                	unimp
     82c:	7b02                	flw	fs6,32(sp)
     82e:	9b0c                	0x9b0c
     830:	0000                	unimp
     832:	0200                	addi	s0,sp,256
     834:	6c91                	lui	s9,0x4
     836:	0f00                	addi	s0,sp,912
     838:	0596                	slli	a1,a1,0x5
     83a:	0000                	unimp
     83c:	6e02                	flw	ft8,0(sp)
     83e:	8c06                	mv	s8,ra
     840:	000a                	c.slli	zero,0x2
     842:	8c20                	0x8c20
     844:	0000                	unimp
     846:	0100                	addi	s0,sp,128
     848:	779c                	flw	fa5,40(a5)
     84a:	0002                	c.slli64	zero
     84c:	1300                	addi	s0,sp,416
     84e:	7269                	lui	tp,0xffffa
     850:	0071                	c.nop	28
     852:	6e02                	flw	ft8,0(sp)
     854:	9b24                	0x9b24
     856:	0000                	unimp
     858:	0200                	addi	s0,sp,256
     85a:	5c91                	li	s9,-28
     85c:	a310                	fsd	fa2,0(a4)
     85e:	0005                	c.nop	1
     860:	0200                	addi	s0,sp,256
     862:	326e                	fld	ft4,248(sp)
     864:	0000009b          	0x9b
     868:	9102                	jalr	sp
     86a:	1258                	addi	a4,sp,292
     86c:	0000056b          	0x56b
     870:	7002                	flw	ft0,32(sp)
     872:	7708                	flw	fa0,40(a4)
     874:	0002                	c.slli64	zero
     876:	0200                	addi	s0,sp,256
     878:	6f91                	lui	t6,0x4
     87a:	fd12                	fsw	ft4,184(sp)
     87c:	02000003          	lb	zero,32(zero) # 20 <__global_pointer$-0xfffffe0>
     880:	1371                	addi	t1,t1,-4
     882:	0184                	addi	s1,sp,192
     884:	0000                	unimp
     886:	9102                	jalr	sp
     888:	1460                	addi	s0,sp,556
     88a:	6572                	flw	fa0,28(sp)
     88c:	73020067          	jr	1840(tp) # 0 <__global_pointer$-0x10000000>
     890:	9b0c                	0x9b0c
     892:	0000                	unimp
     894:	0200                	addi	s0,sp,256
     896:	6891                	lui	a7,0x4
     898:	0200                	addi	s0,sp,256
     89a:	0201                	addi	tp,tp,0
     89c:	02ae                	slli	t0,t0,0xb
     89e:	0000                	unimp
     8a0:	0003ca0f          	0x3ca0f
     8a4:	0200                	addi	s0,sp,256
     8a6:	0665                	addi	a2,a2,25
     8a8:	09f0                	addi	a2,sp,220
     8aa:	2000                	fld	fs0,0(s0)
     8ac:	009c                	addi	a5,sp,64
     8ae:	0000                	unimp
     8b0:	9c01                	0x9c01
     8b2:	02e0                	addi	s0,sp,332
     8b4:	0000                	unimp
     8b6:	71726913          	ori	s2,tp,1815
     8ba:	0200                	addi	s0,sp,256
     8bc:	2465                	jal	b64 <__global_pointer$-0xffff49c>
     8be:	0000009b          	0x9b
     8c2:	9102                	jalr	sp
     8c4:	105c                	addi	a5,sp,36
     8c6:	03ac                	addi	a1,sp,456
     8c8:	0000                	unimp
     8ca:	6502                	flw	fa0,0(sp)
     8cc:	8f31                	xor	a4,a4,a2
     8ce:	0000                	unimp
     8d0:	0200                	addi	s0,sp,256
     8d2:	5b91                	li	s7,-28
     8d4:	9f10                	0x9f10
     8d6:	02000003          	lb	zero,32(zero) # 20 <__global_pointer$-0xfffffe0>
     8da:	4165                	li	sp,25
     8dc:	0000009b          	0x9b
     8e0:	9102                	jalr	sp
     8e2:	1254                	addi	a3,sp,292
     8e4:	03fd                	addi	t2,t2,31
     8e6:	0000                	unimp
     8e8:	6702                	flw	fa4,0(sp)
     8ea:	00018413          	mv	s0,gp
     8ee:	0200                	addi	s0,sp,256
     8f0:	6491                	lui	s1,0x4
     8f2:	7214                	flw	fa3,32(a2)
     8f4:	6765                	lui	a4,0x19
     8f6:	0200                	addi	s0,sp,256
     8f8:	0c69                	addi	s8,s8,26
     8fa:	0000009b          	0x9b
     8fe:	9102                	jalr	sp
     900:	006c                	addi	a1,sp,12
     902:	0004980f          	0x4980f
     906:	0200                	addi	s0,sp,256
     908:	0660                	addi	s0,sp,780
     90a:	09b8                	addi	a4,sp,216
     90c:	2000                	fld	fs0,0(s0)
     90e:	0038                	addi	a4,sp,8
     910:	0000                	unimp
     912:	9c01                	0x9c01
     914:	0306                	slli	t1,t1,0x1
     916:	0000                	unimp
     918:	1410                	addi	a2,sp,544
     91a:	0005                	c.nop	1
     91c:	0200                	addi	s0,sp,256
     91e:	2560                	fld	fs0,200(a0)
     920:	0000009b          	0x9b
     924:	9102                	jalr	sp
     926:	006c                	addi	a1,sp,12
     928:	0004ae0f          	0x4ae0f
     92c:	0200                	addi	s0,sp,256
     92e:	065a                	slli	a2,a2,0x16
     930:	096c                	addi	a1,sp,156
     932:	2000                	fld	fs0,0(s0)
     934:	004c                	addi	a1,sp,4
     936:	0000                	unimp
     938:	9c01                	0x9c01
     93a:	0000033b          	0x33b
     93e:	71726913          	ori	s2,tp,1815
     942:	0200                	addi	s0,sp,256
     944:	255a                	fld	fa0,400(sp)
     946:	0000009b          	0x9b
     94a:	9102                	jalr	sp
     94c:	125c                	addi	a5,sp,292
     94e:	0288                	addi	a0,sp,320
     950:	0000                	unimp
     952:	5b02                	lw	s6,32(sp)
     954:	a712                	fsd	ft4,392(sp)
     956:	0000                	unimp
     958:	0200                	addi	s0,sp,256
     95a:	6c91                	lui	s9,0x4
     95c:	0f00                	addi	s0,sp,912
     95e:	04d6                	slli	s1,s1,0x15
     960:	0000                	unimp
     962:	5502                	lw	a0,32(sp)
     964:	3406                	fld	fs0,96(sp)
     966:	0009                	c.nop	2
     968:	3820                	fld	fs0,112(s0)
     96a:	0000                	unimp
     96c:	0100                	addi	s0,sp,128
     96e:	619c                	flw	fa5,0(a1)
     970:	10000003          	lb	zero,256(zero) # 100 <__global_pointer$-0xfffff00>
     974:	04df 0000 5502      	0x5502000004df
     97a:	9b22                	add	s6,s6,s0
     97c:	0000                	unimp
     97e:	0200                	addi	s0,sp,256
     980:	6c91                	lui	s9,0x4
     982:	0f00                	addi	s0,sp,912
     984:	04c4                	addi	s1,sp,580
     986:	0000                	unimp
     988:	4f02                	lw	t5,0(sp)
     98a:	e406                	fsw	ft1,8(sp)
     98c:	0008                	0x8
     98e:	5020                	lw	s0,96(s0)
     990:	0000                	unimp
     992:	0100                	addi	s0,sp,128
     994:	a59c                	fsd	fa5,8(a1)
     996:	13000003          	lb	zero,304(zero) # 130 <__global_pointer$-0xffffed0>
     99a:	7269                	lui	tp,0xffffa
     99c:	0071                	c.nop	28
     99e:	4f02                	lw	t5,0(sp)
     9a0:	751c                	flw	fa5,40(a0)
     9a2:	0000                	unimp
     9a4:	0200                	addi	s0,sp,256
     9a6:	5c91                	li	s9,-28
     9a8:	cd10                	sw	a2,24(a0)
     9aa:	0004                	0x4
     9ac:	0200                	addi	s0,sp,256
     9ae:	009b2a4f          	fnmadd.s	fs4,fs6,fs1,ft0,rdn
     9b2:	0000                	unimp
     9b4:	9102                	jalr	sp
     9b6:	1258                	addi	a4,sp,292
     9b8:	03f1                	addi	t2,t2,28
     9ba:	0000                	unimp
     9bc:	5102                	lw	sp,32(sp)
     9be:	020d                	addi	tp,tp,3
     9c0:	0001                	nop
     9c2:	0200                	addi	s0,sp,256
     9c4:	6c91                	lui	s9,0x4
     9c6:	0f00                	addi	s0,sp,912
     9c8:	02e4                	addi	s1,sp,332
     9ca:	0000                	unimp
     9cc:	4402                	lw	s0,0(sp)
     9ce:	8c06                	mv	s8,ra
     9d0:	0008                	0x8
     9d2:	5820                	lw	s0,112(s0)
     9d4:	0000                	unimp
     9d6:	0100                	addi	s0,sp,128
     9d8:	e99c                	fsw	fa5,16(a1)
     9da:	10000003          	lb	zero,256(zero) # 100 <__global_pointer$-0xfffff00>
     9de:	012e                	slli	sp,sp,0xb
     9e0:	0000                	unimp
     9e2:	4402                	lw	s0,0(sp)
     9e4:	0000ac3b          	0xac3b
     9e8:	0200                	addi	s0,sp,256
     9ea:	5c91                	li	s9,-28
     9ec:	63706513          	ori	a0,zero,1591
     9f0:	0200                	addi	s0,sp,256
     9f2:	6544                	flw	fs1,12(a0)
     9f4:	00ac                	addi	a1,sp,72
     9f6:	0000                	unimp
     9f8:	9102                	jalr	sp
     9fa:	1258                	addi	a4,sp,292
     9fc:	0451                	addi	s0,s0,20
     9fe:	0000                	unimp
     a00:	4602                	lw	a2,0(sp)
     a02:	00009b0b          	0x9b0b
     a06:	0200                	addi	s0,sp,256
     a08:	6c91                	lui	s9,0x4
     a0a:	1500                	addi	s0,sp,672
     a0c:	000004f3          	0x4f3
     a10:	3a02                	fld	fs4,32(sp)
     a12:	9b0a                	add	s6,s6,sp
     a14:	0000                	unimp
     a16:	5000                	lw	s0,32(s0)
     a18:	0008                	0x8
     a1a:	3c20                	fld	fs0,120(s0)
     a1c:	0000                	unimp
     a1e:	0100                	addi	s0,sp,128
     a20:	229c                	fld	fa5,0(a3)
     a22:	0004                	0x4
     a24:	1200                	addi	s0,sp,288
     a26:	0425                	addi	s0,s0,9
     a28:	0000                	unimp
     a2a:	3c02                	fld	fs8,32(sp)
     a2c:	220c                	fld	fa1,0(a2)
     a2e:	0004                	0x4
     a30:	0200                	addi	s0,sp,256
     a32:	6c91                	lui	s9,0x4
     a34:	5112                	lw	sp,36(sp)
     a36:	0004                	0x4
     a38:	0200                	addi	s0,sp,256
     a3a:	0b3d                	addi	s6,s6,15
     a3c:	0000009b          	0x9b
     a40:	9102                	jalr	sp
     a42:	0068                	addi	a0,sp,12
     a44:	0406                	slli	s0,s0,0x1
     a46:	0000009b          	0x9b
     a4a:	0616                	slli	a2,a2,0x5
     a4c:	0004                	0x4
     a4e:	0200                	addi	s0,sp,256
     a50:	1832                	slli	a6,a6,0x2c
     a52:	0184                	addi	s1,sp,192
     a54:	0000                	unimp
     a56:	07c4                	addi	s1,sp,964
     a58:	2000                	fld	fs0,0(s0)
     a5a:	008c                	addi	a1,sp,64
     a5c:	0000                	unimp
     a5e:	9c01                	0x9c01
     a60:	0462                	slli	s0,s0,0x18
     a62:	0000                	unimp
     a64:	71726913          	ori	s2,tp,1815
     a68:	0200                	addi	s0,sp,256
     a6a:	4032                	0x4032
     a6c:	0000009b          	0x9b
     a70:	7fbc9103          	lh	sp,2043(s9) # 47fb <__global_pointer$-0xfffb805>
     a74:	f112                	fsw	ft4,160(sp)
     a76:	02000003          	lb	zero,32(zero) # 20 <__global_pointer$-0xfffffe0>
     a7a:	01020d33          	add	s10,tp,a6
     a7e:	0000                	unimp
     a80:	9102                	jalr	sp
     a82:	005c                	addi	a5,sp,4
     a84:	5216                	lw	tp,100(sp)
     a86:	0005                	c.nop	1
     a88:	0200                	addi	s0,sp,256
     a8a:	1829                	addi	a6,a6,-22
     a8c:	0184                	addi	s1,sp,192
     a8e:	0000                	unimp
     a90:	0728                	addi	a0,sp,904
     a92:	2000                	fld	fs0,0(s0)
     a94:	009c                	addi	a5,sp,64
     a96:	0000                	unimp
     a98:	9c01                	0x9c01
     a9a:	04ac                	addi	a1,sp,584
     a9c:	0000                	unimp
     a9e:	71726913          	ori	s2,tp,1815
     aa2:	0200                	addi	s0,sp,256
     aa4:	3a29                	jal	3be <__global_pointer$-0xffffc42>
     aa6:	0000009b          	0x9b
     aaa:	7fbc9103          	lh	sp,2043(s9)
     aae:	9f10                	0x9f10
     ab0:	02000003          	lb	zero,32(zero) # 20 <__global_pointer$-0xfffffe0>
     ab4:	3a2a                	fld	fs4,168(sp)
     ab6:	0000009b          	0x9b
     aba:	7fb89103          	lh	sp,2043(a7) # 47fb <__global_pointer$-0xfffb805>
     abe:	f112                	fsw	ft4,160(sp)
     ac0:	02000003          	lb	zero,32(zero) # 20 <__global_pointer$-0xfffffe0>
     ac4:	01020d2b          	0x1020d2b
     ac8:	0000                	unimp
     aca:	9102                	jalr	sp
     acc:	005c                	addi	a5,sp,4
     ace:	0003b217          	auipc	tp,0x3b
     ad2:	0200                	addi	s0,sp,256
     ad4:	1022                	c.slli	zero,0x28
     ad6:	0000008f          	0x8f
     ada:	06f8                	addi	a4,sp,844
     adc:	2000                	fld	fs0,0(s0)
     ade:	0030                	addi	a2,sp,8
     ae0:	0000                	unimp
     ae2:	9c01                	0x9c01
     ae4:	04d6                	slli	s1,s1,0x15
     ae6:	0000                	unimp
     ae8:	71726913          	ori	s2,tp,1815
     aec:	0200                	addi	s0,sp,256
     aee:	2c22                	fld	fs8,8(sp)
     af0:	0000009b          	0x9b
     af4:	9102                	jalr	sp
     af6:	006c                	addi	a1,sp,12
     af8:	00058017          	auipc	zero,0x58
     afc:	0200                	addi	s0,sp,256
     afe:	121d                	addi	tp,tp,-25
     b00:	0102                	c.slli64	sp
     b02:	0000                	unimp
     b04:	06c4                	addi	s1,sp,836
     b06:	2000                	fld	fs0,0(s0)
     b08:	0034                	addi	a3,sp,8
     b0a:	0000                	unimp
     b0c:	9c01                	0x9c01
     b0e:	0000050f          	0x50f
     b12:	71726913          	ori	s2,tp,1815
     b16:	0200                	addi	s0,sp,256
     b18:	311d                	jal	73e <__global_pointer$-0xffff8c2>
     b1a:	0000009b          	0x9b
     b1e:	9102                	jalr	sp
     b20:	125c                	addi	a5,sp,292
     b22:	0000050b          	0x50b
     b26:	1e02                	slli	t3,t3,0x20
     b28:	00008f0b          	0x8f0b
     b2c:	0200                	addi	s0,sp,256
     b2e:	6f91                	lui	t6,0x4
     b30:	1700                	addi	s0,sp,928
     b32:	0386                	slli	t2,t2,0x1
     b34:	0000                	unimp
     b36:	1802                	slli	a6,a6,0x20
     b38:	0212                	slli	tp,tp,0x4
     b3a:	0001                	nop
     b3c:	8c00                	0x8c00
     b3e:	0006                	c.slli	zero,0x1
     b40:	3820                	fld	fs0,112(s0)
     b42:	0000                	unimp
     b44:	0100                	addi	s0,sp,128
     b46:	489c                	lw	a5,16(s1)
     b48:	0005                	c.nop	1
     b4a:	1000                	addi	s0,sp,32
     b4c:	039f 0000 1802      	0x18020000039f
     b52:	00009b3b          	0x9b3b
     b56:	0200                	addi	s0,sp,256
     b58:	5c91                	li	s9,-28
     b5a:	a612                	fsd	ft4,264(sp)
     b5c:	02000003          	lb	zero,32(zero) # 20 <__global_pointer$-0xfffffe0>
     b60:	0d19                	addi	s10,s10,6
     b62:	0102                	c.slli64	sp
     b64:	0000                	unimp
     b66:	9102                	jalr	sp
     b68:	006c                	addi	a1,sp,12
     b6a:	0003df17          	auipc	t5,0x3d
     b6e:	0200                	addi	s0,sp,256
     b70:	01021213          	slli	tp,tp,0x10
     b74:	0000                	unimp
     b76:	0658                	addi	a4,sp,772
     b78:	2000                	fld	fs0,0(s0)
     b7a:	0034                	addi	a3,sp,8
     b7c:	0000                	unimp
     b7e:	9c01                	0x9c01
     b80:	0581                	addi	a1,a1,0
     b82:	0000                	unimp
     b84:	71726913          	ori	s2,tp,1815
     b88:	0200                	addi	s0,sp,256
     b8a:	009b3413          	sltiu	s0,s6,9
     b8e:	0000                	unimp
     b90:	9102                	jalr	sp
     b92:	125c                	addi	a5,sp,292
     b94:	03f1                	addi	t2,t2,28
     b96:	0000                	unimp
     b98:	1402                	slli	s0,s0,0x20
     b9a:	020d                	addi	tp,tp,3
     b9c:	0001                	nop
     b9e:	0200                	addi	s0,sp,256
     ba0:	6c91                	lui	s9,0x4
     ba2:	1800                	addi	s0,sp,48
     ba4:	027f                	0x27f
     ba6:	0000                	unimp
     ba8:	0e01                	addi	t3,t3,0
     baa:	9b11                	andi	a4,a4,-28
     bac:	0000                	unimp
     bae:	2c00                	fld	fs0,24(s0)
     bb0:	0006                	c.slli	zero,0x1
     bb2:	2c20                	fld	fs0,88(s0)
     bb4:	0000                	unimp
     bb6:	0100                	addi	s0,sp,128
     bb8:	109c                	addi	a5,sp,96
     bba:	0514                	addi	a3,sp,640
     bbc:	0000                	unimp
     bbe:	0e01                	addi	t3,t3,0
     bc0:	9b28                	0x9b28
     bc2:	0000                	unimp
     bc4:	0200                	addi	s0,sp,256
     bc6:	6c91                	lui	s9,0x4
     bc8:	0000                	unimp
     bca:	03f9                	addi	t2,t2,30
     bcc:	0000                	unimp
     bce:	0004                	0x4
     bd0:	04ea                	slli	s1,s1,0x1a
     bd2:	0000                	unimp
     bd4:	0104                	addi	s1,sp,128
     bd6:	0000                	unimp
     bd8:	0000                	unimp
     bda:	950c                	0x950c
     bdc:	0006                	c.slli	zero,0x1
     bde:	dc00                	sw	s0,56(s0)
     be0:	0000                	unimp
     be2:	ec00                	fsw	fs0,24(s0)
     be4:	2020000b          	0x2020000b
     be8:	0004                	0x4
     bea:	7f00                	flw	fs0,56(a4)
     bec:	000a                	c.slli	zero,0x2
     bee:	0200                	addi	s0,sp,256
     bf0:	0601                	addi	a2,a2,0
     bf2:	0052                	c.slli	zero,0x14
     bf4:	0000                	unimp
     bf6:	0102                	c.slli64	sp
     bf8:	5008                	lw	a0,32(s0)
     bfa:	0000                	unimp
     bfc:	0200                	addi	s0,sp,256
     bfe:	0502                	c.slli64	a0
     c00:	00d2                	slli	ra,ra,0x14
     c02:	0000                	unimp
     c04:	0202                	c.slli64	tp
     c06:	00009a07          	0x9a07
     c0a:	0200                	addi	s0,sp,256
     c0c:	0504                	addi	s1,sp,640
     c0e:	00c9                	addi	ra,ra,18
     c10:	0000                	unimp
     c12:	00022103          	lw	sp,0(tp) # 3bace <__global_pointer$-0xffc4532>
     c16:	0300                	addi	s0,sp,384
     c18:	0054194f          	fnmadd.s	fs2,fs0,ft5,ft0,rtz
     c1c:	0000                	unimp
     c1e:	0402                	c.slli64	s0
     c20:	0000b207          	fld	ft4,0(ra)
     c24:	0200                	addi	s0,sp,256
     c26:	0508                	addi	a0,sp,640
     c28:	00c4                	addi	s1,sp,68
     c2a:	0000                	unimp
     c2c:	0802                	c.slli64	a6
     c2e:	0000ad07          	flw	fs10,0(ra)
     c32:	0400                	addi	s0,sp,512
     c34:	0504                	addi	s1,sp,640
     c36:	6e69                	lui	t3,0x1a
     c38:	0074                	addi	a3,sp,12
     c3a:	00003e03          	0x3e03
     c3e:	0300                	addi	s0,sp,384
     c40:	1ae8                	addi	a0,sp,380
     c42:	007c                	addi	a5,sp,12
     c44:	0000                	unimp
     c46:	0402                	c.slli64	s0
     c48:	0000b707          	fld	fa4,0(ra)
     c4c:	0300                	addi	s0,sp,384
     c4e:	00000223          	sb	zero,4(zero) # 4 <__global_pointer$-0xffffffc>
     c52:	3004                	fld	fs1,32(s0)
     c54:	4814                	lw	a3,16(s0)
     c56:	0000                	unimp
     c58:	0500                	addi	s0,sp,640
     c5a:	00000083          	lb	ra,0(zero) # 0 <__global_pointer$-0x10000000>
     c5e:	00004003          	lbu	zero,0(zero) # 0 <__global_pointer$-0x10000000>
     c62:	0400                	addi	s0,sp,512
     c64:	1552                	slli	a0,a0,0x34
     c66:	0070                	addi	a2,sp,12
     c68:	0000                	unimp
     c6a:	00031703          	lh	a4,0(t1)
     c6e:	0500                	addi	s0,sp,640
     c70:	100d                	c.nop	-29
     c72:	00ac                	addi	a1,sp,72
     c74:	0000                	unimp
     c76:	0406                	slli	s0,s0,0x1
     c78:	00b2                	slli	ra,ra,0xc
     c7a:	0000                	unimp
     c7c:	0000c207          	flq	ft4,0(ra)
     c80:	0800                	addi	s0,sp,16
     c82:	0094                	addi	a3,sp,64
     c84:	0000                	unimp
     c86:	9408                	0x9408
     c88:	0000                	unimp
     c8a:	0000                	unimp
     c8c:	a009                	j	c8e <__global_pointer$-0xffff372>
     c8e:	0000                	unimp
     c90:	d200                	sw	s0,32(a2)
     c92:	0000                	unimp
     c94:	0a00                	addi	s0,sp,272
     c96:	007c                	addi	a5,sp,12
     c98:	0000                	unimp
     c9a:	f60b000f          	0xf60b000f
     c9e:	0002                	c.slli64	zero
     ca0:	0500                	addi	s0,sp,640
     ca2:	150e                	slli	a0,a0,0x23
     ca4:	00c2                	slli	ra,ra,0x10
     ca6:	0000                	unimp
     ca8:	0003660b          	0x3660b
     cac:	0500                	addi	s0,sp,640
     cae:	00c2150f          	0xc2150f
     cb2:	0000                	unimp
     cb4:	1002                	c.slli	zero,0x20
     cb6:	8d04                	0x8d04
     cb8:	0002                	c.slli64	zero
     cba:	0300                	addi	s0,sp,384
     cbc:	0525                	addi	a0,a0,9
     cbe:	0000                	unimp
     cc0:	3606                	fld	fa2,96(sp)
     cc2:	fd10                	fsw	fa2,56(a0)
     cc4:	0000                	unimp
     cc6:	0600                	addi	s0,sp,768
     cc8:	0304                	addi	s1,sp,384
     cca:	0001                	nop
     ccc:	0700                	addi	s0,sp,896
     cce:	010e                	slli	sp,sp,0x3
     cd0:	0000                	unimp
     cd2:	8308                	0x8308
     cd4:	0000                	unimp
     cd6:	0000                	unimp
     cd8:	f109                	bnez	a0,bda <__global_pointer$-0xffff426>
     cda:	0000                	unimp
     cdc:	1e00                	addi	s0,sp,816
     cde:	0001                	nop
     ce0:	0a00                	addi	s0,sp,272
     ce2:	007c                	addi	a5,sp,12
     ce4:	0000                	unimp
     ce6:	3d0b003f 06000004 	0x60000043d0b003f
     cee:	010e1437          	lui	s0,0x10e1
     cf2:	0000                	unimp
     cf4:	f20c                	fsw	fa1,32(a2)
     cf6:	0005                	c.nop	1
     cf8:	0200                	addi	s0,sp,256
     cfa:	0671                	addi	a2,a2,28
     cfc:	0fc8                	addi	a0,sp,980
     cfe:	2000                	fld	fs0,0(s0)
     d00:	0044                	addi	s1,sp,4
     d02:	0000                	unimp
     d04:	9c01                	0x9c01
     d06:	015f 0000 700d      	0x700d0000015f
     d0c:	6e69                	lui	t3,0x1a
     d0e:	0200                	addi	s0,sp,256
     d10:	1871                	addi	a6,a6,-4
     d12:	0069                	c.nop	26
     d14:	0000                	unimp
     d16:	9102                	jalr	sp
     d18:	0e6c                	addi	a1,sp,796
     d1a:	024c                	addi	a1,sp,260
     d1c:	0000                	unimp
     d1e:	7102                	flw	ft2,32(sp)
     d20:	8326                	mv	t1,s1
     d22:	0000                	unimp
     d24:	0200                	addi	s0,sp,256
     d26:	6891                	lui	a7,0x4
     d28:	0c00                	addi	s0,sp,528
     d2a:	0678                	addi	a4,sp,780
     d2c:	0000                	unimp
     d2e:	6a02                	flw	fs4,0(sp)
     d30:	9006                	c.add	zero,ra
     d32:	3820000f          	0x3820000f
     d36:	0000                	unimp
     d38:	0100                	addi	s0,sp,128
     d3a:	859c                	0x859c
     d3c:	0001                	nop
     d3e:	0e00                	addi	s0,sp,784
     d40:	03ac                	addi	a1,sp,456
     d42:	0000                	unimp
     d44:	6a02                	flw	fs4,0(sp)
     d46:	832c                	0x832c
     d48:	0000                	unimp
     d4a:	0200                	addi	s0,sp,256
     d4c:	6c91                	lui	s9,0x4
     d4e:	0c00                	addi	s0,sp,528
     d50:	05d9                	addi	a1,a1,22
     d52:	0000                	unimp
     d54:	6602                	flw	fa2,0(sp)
     d56:	5406                	lw	s0,96(sp)
     d58:	3c20000f          	0x3c20000f
     d5c:	0000                	unimp
     d5e:	0100                	addi	s0,sp,128
     d60:	ab9c                	fsd	fa5,16(a5)
     d62:	0001                	nop
     d64:	0d00                	addi	s0,sp,656
     d66:	6970                	flw	fa2,84(a0)
     d68:	006e                	c.slli	zero,0x1b
     d6a:	6602                	flw	fa2,0(sp)
     d6c:	4124                	lw	s1,64(a0)
     d6e:	0000                	unimp
     d70:	0200                	addi	s0,sp,256
     d72:	6c91                	lui	s9,0x4
     d74:	0f00                	addi	s0,sp,912
     d76:	00000633          	add	a2,zero,zero
     d7a:	5602                	lw	a2,32(sp)
     d7c:	830a                	mv	t1,sp
     d7e:	0000                	unimp
     d80:	0000                	unimp
     d82:	5420000f          	0x5420000f
     d86:	0000                	unimp
     d88:	0100                	addi	s0,sp,128
     d8a:	e49c                	fsw	fa5,8(s1)
     d8c:	0001                	nop
     d8e:	0d00                	addi	s0,sp,656
     d90:	6970                	flw	fa2,84(a0)
     d92:	006e                	c.slli	zero,0x1b
     d94:	5602                	lw	a2,32(sp)
     d96:	691c                	flw	fa5,16(a0)
     d98:	0000                	unimp
     d9a:	0200                	addi	s0,sp,256
     d9c:	5c91                	li	s9,-28
     d9e:	ac10                	fsd	fa2,24(s0)
     da0:	02000003          	lb	zero,32(zero) # 20 <__global_pointer$-0xfffffe0>
     da4:	0c59                	addi	s8,s8,22
     da6:	00000083          	lb	ra,0(zero) # 0 <__global_pointer$-0x10000000>
     daa:	9102                	jalr	sp
     dac:	006c                	addi	a1,sp,12
     dae:	2411                	jal	fb2 <__global_pointer$-0xffff04e>
     db0:	02000007          	0x2000007
     db4:	0a52                	slli	s4,s4,0x14
     db6:	00000083          	lb	ra,0(zero) # 0 <__global_pointer$-0x10000000>
     dba:	0ecc                	addi	a1,sp,852
     dbc:	2000                	fld	fs0,0(s0)
     dbe:	0034                	addi	a3,sp,8
     dc0:	0000                	unimp
     dc2:	9c01                	0x9c01
     dc4:	cf0c                	sw	a1,24(a4)
     dc6:	0006                	c.slli	zero,0x1
     dc8:	0200                	addi	s0,sp,256
     dca:	064d                	addi	a2,a2,19
     dcc:	0e94                	addi	a3,sp,848
     dce:	2000                	fld	fs0,0(s0)
     dd0:	0038                	addi	a4,sp,8
     dd2:	0000                	unimp
     dd4:	9c01                	0x9c01
     dd6:	0220                	addi	s0,sp,264
     dd8:	0000                	unimp
     dda:	ac0e                	fsd	ft3,24(sp)
     ddc:	02000003          	lb	zero,32(zero) # 20 <__global_pointer$-0xfffffe0>
     de0:	254d                	jal	1482 <__global_pointer$-0xfffeb7e>
     de2:	00000083          	lb	ra,0(zero) # 0 <__global_pointer$-0x10000000>
     de6:	9102                	jalr	sp
     de8:	006c                	addi	a1,sp,12
     dea:	210c                	fld	fa1,0(a0)
     dec:	0006                	c.slli	zero,0x1
     dee:	0200                	addi	s0,sp,256
     df0:	0649                	addi	a2,a2,18
     df2:	0e48                	addi	a0,sp,788
     df4:	2000                	fld	fs0,0(s0)
     df6:	004c                	addi	a1,sp,4
     df8:	0000                	unimp
     dfa:	9c01                	0x9c01
     dfc:	0255                	addi	tp,tp,21
     dfe:	0000                	unimp
     e00:	700d                	c.lui	zero,0xfffe3
     e02:	6e69                	lui	t3,0x1a
     e04:	0200                	addi	s0,sp,256
     e06:	1d49                	addi	s10,s10,-14
     e08:	0041                	c.nop	16
     e0a:	0000                	unimp
     e0c:	9102                	jalr	sp
     e0e:	0d6c                	addi	a1,sp,668
     e10:	6176                	flw	ft2,92(sp)
     e12:	006c                	addi	a1,sp,12
     e14:	4902                	lw	s2,0(sp)
     e16:	6926                	flw	fs2,72(sp)
     e18:	0000                	unimp
     e1a:	0200                	addi	s0,sp,256
     e1c:	6891                	lui	a7,0x4
     e1e:	0c00                	addi	s0,sp,528
     e20:	00000703          	lb	a4,0(zero) # 0 <__global_pointer$-0x10000000>
     e24:	4302                	lw	t1,0(sp)
     e26:	e006                	fsw	ft1,0(sp)
     e28:	000d                	c.nop	3
     e2a:	6820                	flw	fs0,80(s0)
     e2c:	0000                	unimp
     e2e:	0100                	addi	s0,sp,128
     e30:	999c                	0x999c
     e32:	0002                	c.slli64	zero
     e34:	0d00                	addi	s0,sp,656
     e36:	6970                	flw	fa2,84(a0)
     e38:	006e                	c.slli	zero,0x1b
     e3a:	4302                	lw	t1,0(sp)
     e3c:	691c                	flw	fa5,16(a0)
     e3e:	0000                	unimp
     e40:	0200                	addi	s0,sp,256
     e42:	5c91                	li	s9,-28
     e44:	760d                	lui	a2,0xfffe3
     e46:	6c61                	lui	s8,0x18
     e48:	0200                	addi	s0,sp,256
     e4a:	00692543          	fmadd.s	fa0,fs2,ft6,ft0,rdn
     e4e:	0000                	unimp
     e50:	9102                	jalr	sp
     e52:	1058                	addi	a4,sp,36
     e54:	000006fb          	0x6fb
     e58:	4402                	lw	s0,0(sp)
     e5a:	8f12                	mv	t5,tp
     e5c:	0000                	unimp
     e5e:	0200                	addi	s0,sp,256
     e60:	6c91                	lui	s9,0x4
     e62:	1200                	addi	s0,sp,288
     e64:	06e5                	addi	a3,a3,25
     e66:	0000                	unimp
     e68:	3202                	fld	ft4,32(sp)
     e6a:	2c0d                	jal	109c <__global_pointer$-0xfffef64>
     e6c:	000d                	c.nop	3
     e6e:	b420                	fsd	fs0,104(s0)
     e70:	0000                	unimp
     e72:	0100                	addi	s0,sp,128
     e74:	0a9c                	addi	a5,sp,336
     e76:	0e000003          	lb	zero,224(zero) # e0 <__global_pointer$-0xfffff20>
     e7a:	0600                	addi	s0,sp,768
     e7c:	0000                	unimp
     e7e:	3202                	fld	ft4,32(sp)
     e80:	832c                	0x832c
     e82:	0000                	unimp
     e84:	0200                	addi	s0,sp,256
     e86:	5c91                	li	s9,-28
     e88:	c80e                	sw	gp,16(sp)
     e8a:	0005                	c.nop	1
     e8c:	0200                	addi	s0,sp,256
     e8e:	00833533          	sltu	a0,t1,s0
     e92:	0000                	unimp
     e94:	9102                	jalr	sp
     e96:	0e58                	addi	a4,sp,788
     e98:	0288                	addi	a0,sp,320
     e9a:	0000                	unimp
     e9c:	3402                	fld	fs0,32(sp)
     e9e:	8335                	srli	a4,a4,0xd
     ea0:	0000                	unimp
     ea2:	0200                	addi	s0,sp,256
     ea4:	5491                	li	s1,-28
     ea6:	760d                	lui	a2,0xfffe3
     ea8:	6c61                	lui	s8,0x18
     eaa:	0200                	addi	s0,sp,256
     eac:	4434                	lw	a3,72(s0)
     eae:	00000083          	lb	ra,0(zero) # 0 <__global_pointer$-0x10000000>
     eb2:	9102                	jalr	sp
     eb4:	1050                	addi	a2,sp,36
     eb6:	0611                	addi	a2,a2,4
     eb8:	0000                	unimp
     eba:	3702                	fld	fa4,32(sp)
     ebc:	8f12                	mv	t5,tp
     ebe:	0000                	unimp
     ec0:	0200                	addi	s0,sp,256
     ec2:	6c91                	lui	s9,0x4
     ec4:	6810                	flw	fa2,16(s0)
     ec6:	0006                	c.slli	zero,0x1
     ec8:	0200                	addi	s0,sp,256
     eca:	1238                	addi	a4,sp,296
     ecc:	0000008f          	0x8f
     ed0:	9102                	jalr	sp
     ed2:	0068                	addi	a0,sp,12
     ed4:	150c                	addi	a1,sp,672
     ed6:	02000007          	0x2000007
     eda:	062e                	slli	a2,a2,0xb
     edc:	0cf4                	addi	a3,sp,604
     ede:	2000                	fld	fs0,0(s0)
     ee0:	0038                	addi	a4,sp,8
     ee2:	0000                	unimp
     ee4:	9c01                	0x9c01
     ee6:	0330                	addi	a2,sp,392
     ee8:	0000                	unimp
     eea:	140e                	slli	s0,s0,0x23
     eec:	0005                	c.nop	1
     eee:	0200                	addi	s0,sp,256
     ef0:	1e2e                	slli	t3,t3,0x2b
     ef2:	00000083          	lb	ra,0(zero) # 0 <__global_pointer$-0x10000000>
     ef6:	9102                	jalr	sp
     ef8:	006c                	addi	a1,sp,12
     efa:	b90c                	fsd	fa1,48(a0)
     efc:	0005                	c.nop	1
     efe:	0200                	addi	s0,sp,256
     f00:	062a                	slli	a2,a2,0xa
     f02:	0cbc                	addi	a5,sp,600
     f04:	2000                	fld	fs0,0(s0)
     f06:	0038                	addi	a4,sp,8
     f08:	0000                	unimp
     f0a:	9c01                	0x9c01
     f0c:	0356                	slli	t1,t1,0x15
     f0e:	0000                	unimp
     f10:	140e                	slli	s0,s0,0x23
     f12:	0005                	c.nop	1
     f14:	0200                	addi	s0,sp,256
     f16:	1e2a                	slli	t3,t3,0x2a
     f18:	00000083          	lb	ra,0(zero) # 0 <__global_pointer$-0x10000000>
     f1c:	9102                	jalr	sp
     f1e:	006c                	addi	a1,sp,12
     f20:	410c                	lw	a1,0(a0)
     f22:	0006                	c.slli	zero,0x1
     f24:	0200                	addi	s0,sp,256
     f26:	0626                	slli	a2,a2,0x9
     f28:	0c84                	addi	s1,sp,592
     f2a:	2000                	fld	fs0,0(s0)
     f2c:	0038                	addi	a4,sp,8
     f2e:	0000                	unimp
     f30:	9c01                	0x9c01
     f32:	037c                	addi	a5,sp,396
     f34:	0000                	unimp
     f36:	140e                	slli	s0,s0,0x23
     f38:	0005                	c.nop	1
     f3a:	0200                	addi	s0,sp,256
     f3c:	2026                	fld	ft0,72(sp)
     f3e:	00000083          	lb	ra,0(zero) # 0 <__global_pointer$-0x10000000>
     f42:	9102                	jalr	sp
     f44:	006c                	addi	a1,sp,12
     f46:	520c                	lw	a1,32(a2)
     f48:	0006                	c.slli	zero,0x1
     f4a:	0200                	addi	s0,sp,256
     f4c:	0614                	addi	a3,sp,768
     f4e:	0c18                	addi	a4,sp,528
     f50:	2000                	fld	fs0,0(s0)
     f52:	006c                	addi	a1,sp,12
     f54:	0000                	unimp
     f56:	9c01                	0x9c01
     f58:	000003cf          	fnmadd.s	ft7,ft0,ft0,ft0,rne
     f5c:	f10e                	fsw	ft3,160(sp)
     f5e:	02000003          	lb	zero,32(zero) # 20 <__global_pointer$-0xfffffe0>
     f62:	2514                	fld	fa3,8(a0)
     f64:	00000083          	lb	ra,0(zero) # 0 <__global_pointer$-0x10000000>
     f68:	9102                	jalr	sp
     f6a:	0e5c                	addi	a5,sp,788
     f6c:	0514                	addi	a3,sp,640
     f6e:	0000                	unimp
     f70:	1402                	slli	s0,s0,0x20
     f72:	8336                	mv	t1,a3
     f74:	0000                	unimp
     f76:	0200                	addi	s0,sp,256
     f78:	5891                	li	a7,-28
     f7a:	760d                	lui	a2,0xfffe3
     f7c:	6c61                	lui	s8,0x18
     f7e:	0200                	addi	s0,sp,256
     f80:	4214                	lw	a3,0(a2)
     f82:	000003cf          	fnmadd.s	ft7,ft0,ft0,ft0,rne
     f86:	9102                	jalr	sp
     f88:	02881057          	0x2881057
     f8c:	0000                	unimp
     f8e:	1502                	slli	a0,a0,0x20
     f90:	8f12                	mv	t5,tp
     f92:	0000                	unimp
     f94:	0200                	addi	s0,sp,256
     f96:	6c91                	lui	s9,0x4
     f98:	0200                	addi	s0,sp,256
     f9a:	0201                	addi	tp,tp,0
     f9c:	02ae                	slli	t0,t0,0xb
     f9e:	0000                	unimp
     fa0:	00027f13          	andi	t5,tp,0
     fa4:	0100                	addi	s0,sp,128
     fa6:	110e                	slli	sp,sp,0x23
     fa8:	00000083          	lb	ra,0(zero) # 0 <__global_pointer$-0x10000000>
     fac:	0bec                	addi	a1,sp,476
     fae:	2000                	fld	fs0,0(s0)
     fb0:	002c                	addi	a1,sp,8
     fb2:	0000                	unimp
     fb4:	9c01                	0x9c01
     fb6:	140e                	slli	s0,s0,0x23
     fb8:	0005                	c.nop	1
     fba:	0100                	addi	s0,sp,128
     fbc:	280e                	fld	fa6,192(sp)
     fbe:	00000083          	lb	ra,0(zero) # 0 <__global_pointer$-0x10000000>
     fc2:	9102                	jalr	sp
     fc4:	006c                	addi	a1,sp,12
     fc6:	5100                	lw	s0,32(a0)
     fc8:	0001                	nop
     fca:	0400                	addi	s0,sp,512
     fcc:	2300                	fld	fs0,0(a4)
     fce:	0006                	c.slli	zero,0x1
     fd0:	0400                	addi	s0,sp,512
     fd2:	0001                	nop
     fd4:	0000                	unimp
     fd6:	0c00                	addi	s0,sp,528
     fd8:	0732                	slli	a4,a4,0xc
     fda:	0000                	unimp
     fdc:	00dc                	addi	a5,sp,68
     fde:	0000                	unimp
     fe0:	100c                	addi	a1,sp,32
     fe2:	2000                	fld	fs0,0(s0)
     fe4:	0058                	addi	a4,sp,4
     fe6:	0000                	unimp
     fe8:	00000dcb          	fnmsub.s	fs11,ft0,ft0,ft0,rne
     fec:	0102                	c.slli64	sp
     fee:	5206                	lw	tp,96(sp)
     ff0:	0000                	unimp
     ff2:	0200                	addi	s0,sp,256
     ff4:	0801                	addi	a6,a6,0
     ff6:	0050                	addi	a2,sp,4
     ff8:	0000                	unimp
     ffa:	0202                	c.slli64	tp
     ffc:	d205                	beqz	a2,f1c <__global_pointer$-0xffff0e4>
     ffe:	0000                	unimp
    1000:	0200                	addi	s0,sp,256
    1002:	0702                	c.slli64	a4
    1004:	009a                	slli	ra,ra,0x6
    1006:	0000                	unimp
    1008:	0402                	c.slli64	s0
    100a:	c905                	beqz	a0,103a <__global_pointer$-0xfffefc6>
    100c:	0000                	unimp
    100e:	0300                	addi	s0,sp,384
    1010:	0221                	addi	tp,tp,8
    1012:	0000                	unimp
    1014:	4f02                	lw	t5,0(sp)
    1016:	5419                	li	s0,-26
    1018:	0000                	unimp
    101a:	0200                	addi	s0,sp,256
    101c:	0704                	addi	s1,sp,896
    101e:	00b2                	slli	ra,ra,0xc
    1020:	0000                	unimp
    1022:	0802                	c.slli64	a6
    1024:	c405                	beqz	s0,104c <__global_pointer$-0xfffefb4>
    1026:	0000                	unimp
    1028:	0200                	addi	s0,sp,256
    102a:	0708                	addi	a0,sp,896
    102c:	00ad                	addi	ra,ra,11
    102e:	0000                	unimp
    1030:	0404                	addi	s1,sp,512
    1032:	6905                	lui	s2,0x1
    1034:	746e                	flw	fs0,248(sp)
    1036:	0300                	addi	s0,sp,384
    1038:	003e                	c.slli	zero,0xf
    103a:	0000                	unimp
    103c:	e802                	fsw	ft0,16(sp)
    103e:	7c1a                	flw	fs8,164(sp)
    1040:	0000                	unimp
    1042:	0200                	addi	s0,sp,256
    1044:	0704                	addi	s1,sp,896
    1046:	000000b7          	lui	ra,0x0
    104a:	00022303          	lw	t1,0(tp) # 0 <__global_pointer$-0x10000000>
    104e:	0300                	addi	s0,sp,384
    1050:	1430                	addi	a2,sp,552
    1052:	0048                	addi	a0,sp,4
    1054:	0000                	unimp
    1056:	00004003          	lbu	zero,0(zero) # 0 <__global_pointer$-0x10000000>
    105a:	0300                	addi	s0,sp,384
    105c:	1552                	slli	a0,a0,0x34
    105e:	0070                	addi	a2,sp,12
    1060:	0000                	unimp
    1062:	00031703          	lh	a4,0(t1)
    1066:	0400                	addi	s0,sp,512
    1068:	100d                	c.nop	-29
    106a:	000000a7          	0xa7
    106e:	0405                	addi	s0,s0,1
    1070:	00ad                	addi	ra,ra,11
    1072:	0000                	unimp
    1074:	bd06                	fsd	ft1,184(sp)
    1076:	0000                	unimp
    1078:	0700                	addi	s0,sp,896
    107a:	0000008f          	0x8f
    107e:	00008f07          	0x8f07
    1082:	0000                	unimp
    1084:	9b08                	0x9b08
    1086:	0000                	unimp
    1088:	cd00                	sw	s0,24(a0)
    108a:	0000                	unimp
    108c:	0900                	addi	s0,sp,144
    108e:	007c                	addi	a5,sp,12
    1090:	0000                	unimp
    1092:	f60a000f          	0xf60a000f
    1096:	0002                	c.slli64	zero
    1098:	0400                	addi	s0,sp,512
    109a:	150e                	slli	a0,a0,0x23
    109c:	00bd                	addi	ra,ra,15
    109e:	0000                	unimp
    10a0:	660a                	flw	fa2,128(sp)
    10a2:	04000003          	lb	zero,64(zero) # 40 <__global_pointer$-0xfffffc0>
    10a6:	00bd150f          	0xbd150f
    10aa:	0000                	unimp
    10ac:	1002                	c.slli	zero,0x20
    10ae:	8d04                	0x8d04
    10b0:	0002                	c.slli64	zero
    10b2:	0300                	addi	s0,sp,384
    10b4:	0525                	addi	a0,a0,9
    10b6:	0000                	unimp
    10b8:	3605                	jal	bd8 <__global_pointer$-0xffff428>
    10ba:	f810                	fsw	fa2,48(s0)
    10bc:	0000                	unimp
    10be:	0500                	addi	s0,sp,640
    10c0:	fe04                	fsw	fs1,56(a2)
    10c2:	0000                	unimp
    10c4:	0600                	addi	s0,sp,768
    10c6:	0109                	addi	sp,sp,2
    10c8:	0000                	unimp
    10ca:	00008307          	0x8307
    10ce:	0000                	unimp
    10d0:	ec08                	fsw	fa0,24(s0)
    10d2:	0000                	unimp
    10d4:	1900                	addi	s0,sp,176
    10d6:	0001                	nop
    10d8:	0900                	addi	s0,sp,144
    10da:	007c                	addi	a5,sp,12
    10dc:	0000                	unimp
    10de:	3d0a003f 05000004 	0x50000043d0a003f
    10e6:	01091437          	lui	s0,0x1091
    10ea:	0000                	unimp
    10ec:	0007740b          	0x7740b
    10f0:	0100                	addi	s0,sp,128
    10f2:	0521                	addi	a0,a0,8
    10f4:	0069                	c.nop	26
    10f6:	0000                	unimp
    10f8:	100c                	addi	a1,sp,32
    10fa:	2000                	fld	fs0,0(s0)
    10fc:	0058                	addi	a4,sp,4
    10fe:	0000                	unimp
    1100:	9c01                	0x9c01
    1102:	1c0c                	addi	a1,sp,560
    1104:	0010                	0x10
    1106:	4420                	lw	s0,72(s0)
    1108:	0000                	unimp
    110a:	0d00                	addi	s0,sp,656
    110c:	004a                	c.slli	zero,0x12
    110e:	0000                	unimp
    1110:	3501                	jal	f10 <__global_pointer$-0xffff0f0>
    1112:	6902                	flw	fs2,0(sp)
    1114:	0000                	unimp
    1116:	0e00                	addi	s0,sp,784
    1118:	0000                	unimp
    111a:	0000                	unimp

Disassembly of section .debug_abbrev:

00000000 <.debug_abbrev>:
   0:	1101                	addi	sp,sp,-32
   2:	2501                	jal	602 <__global_pointer$-0xffff9fe>
   4:	130e                	slli	t1,t1,0x23
   6:	1b0e030b          	0x1b0e030b
   a:	110e                	slli	sp,sp,0x23
   c:	1201                	addi	tp,tp,-32
   e:	1006                	c.slli	zero,0x21
  10:	02000017          	auipc	zero,0x2000
  14:	0024                	addi	s1,sp,8
  16:	0b3e0b0b          	0xb3e0b0b
  1a:	00000e03          	lb	t3,0(zero) # 0 <__global_pointer$-0x10000000>
  1e:	0b002403          	lw	s0,176(zero) # b0 <__global_pointer$-0xfffff50>
  22:	030b3e0b          	0x30b3e0b
  26:	0008                	0x8
  28:	0400                	addi	s0,sp,512
  2a:	0016                	c.slli	zero,0x5
  2c:	0b3a0e03          	lb	t3,179(s4) # fffe00b3 <_etext+0xdffdf04f>
  30:	0b390b3b          	0xb390b3b
  34:	1349                	addi	t1,t1,-14
  36:	0000                	unimp
  38:	2e05                	jal	368 <__global_pointer$-0xffffc98>
  3a:	3f01                	jal	ffffff4a <_etext+0xdfffeee6>
  3c:	0319                	addi	t1,t1,6
  3e:	3a0e                	fld	fs4,224(sp)
  40:	390b3b0b          	0x390b3b0b
  44:	1119270b          	0x1119270b
  48:	1201                	addi	tp,tp,-32
  4a:	4006                	0x4006
  4c:	9718                	0x9718
  4e:	1942                	slli	s2,s2,0x30
  50:	1301                	addi	t1,t1,-32
  52:	0000                	unimp
  54:	0506                	slli	a0,a0,0x1
  56:	0300                	addi	s0,sp,384
  58:	3a08                	fld	fa0,48(a2)
  5a:	390b3b0b          	0x390b3b0b
  5e:	0213490b          	0x213490b
  62:	0018                	0x18
  64:	0700                	addi	s0,sp,896
  66:	0034                	addi	a3,sp,8
  68:	0b3a0e03          	lb	t3,179(s4)
  6c:	0b390b3b          	0xb390b3b
  70:	1349                	addi	t1,t1,-14
  72:	1802                	slli	a6,a6,0x20
  74:	0000                	unimp
  76:	0f08                	addi	a0,sp,912
  78:	0b00                	addi	s0,sp,400
  7a:	0013490b          	0x13490b
  7e:	0900                	addi	s0,sp,144
  80:	012e                	slli	sp,sp,0xb
  82:	0e03193f 0b3b0b3a 	0xb3b0b3a0e03193f
  8a:	0b39                	addi	s6,s6,14
  8c:	01111927          	0x1111927
  90:	0612                	slli	a2,a2,0x4
  92:	1840                	addi	s0,sp,52
  94:	00194297          	auipc	t0,0x194
  98:	0a00                	addi	s0,sp,272
  9a:	0005                	c.nop	1
  9c:	0b3a0e03          	lb	t3,179(s4)
  a0:	0b390b3b          	0xb390b3b
  a4:	1349                	addi	t1,t1,-14
  a6:	1802                	slli	a6,a6,0x20
  a8:	0000                	unimp
  aa:	0100                	addi	s0,sp,128
  ac:	0111                	addi	sp,sp,4
  ae:	0e25                	addi	t3,t3,9
  b0:	0e030b13          	addi	s6,t1,224
  b4:	01110e1b          	0x1110e1b
  b8:	0612                	slli	a2,a2,0x4
  ba:	1710                	addi	a2,sp,928
  bc:	0000                	unimp
  be:	2e02                	fld	ft8,0(sp)
  c0:	3f01                	jal	ffffffd0 <_etext+0xdfffef6c>
  c2:	0319                	addi	t1,t1,6
  c4:	3a0e                	fld	fs4,224(sp)
  c6:	390b3b0b          	0x390b3b0b
  ca:	1119270b          	0x1119270b
  ce:	1201                	addi	tp,tp,-32
  d0:	4006                	0x4006
  d2:	9718                	0x9718
  d4:	1942                	slli	s2,s2,0x30
  d6:	1301                	addi	t1,t1,-32
  d8:	0000                	unimp
  da:	03000503          	lb	a0,48(zero) # 30 <__global_pointer$-0xfffffd0>
  de:	3a0e                	fld	fs4,224(sp)
  e0:	390b3b0b          	0x390b3b0b
  e4:	0213490b          	0x213490b
  e8:	0018                	0x18
  ea:	0400                	addi	s0,sp,512
  ec:	0005                	c.nop	1
  ee:	0b3a0803          	lb	a6,179(s4)
  f2:	0b390b3b          	0xb390b3b
  f6:	1349                	addi	t1,t1,-14
  f8:	1802                	slli	a6,a6,0x20
  fa:	0000                	unimp
  fc:	0b05                	addi	s6,s6,1
  fe:	1101                	addi	sp,sp,-32
 100:	1201                	addi	tp,tp,-32
 102:	0106                	slli	sp,sp,0x1
 104:	06000013          	li	zero,96
 108:	0034                	addi	a3,sp,8
 10a:	0b3a0e03          	lb	t3,179(s4)
 10e:	0b390b3b          	0xb390b3b
 112:	1349                	addi	t1,t1,-14
 114:	1802                	slli	a6,a6,0x20
 116:	0000                	unimp
 118:	11010b07          	0x11010b07
 11c:	1201                	addi	tp,tp,-32
 11e:	0006                	c.slli	zero,0x1
 120:	0800                	addi	s0,sp,16
 122:	0024                	addi	s1,sp,8
 124:	0b3e0b0b          	0xb3e0b0b
 128:	00000803          	lb	a6,0(zero) # 0 <__global_pointer$-0x10000000>
 12c:	0f09                	addi	t5,t5,2
 12e:	0b00                	addi	s0,sp,400
 130:	0013490b          	0x13490b
 134:	0000                	unimp
 136:	1101                	addi	sp,sp,-32
 138:	2501                	jal	738 <__global_pointer$-0xffff8c8>
 13a:	130e                	slli	t1,t1,0x23
 13c:	1b0e030b          	0x1b0e030b
 140:	110e                	slli	sp,sp,0x23
 142:	1201                	addi	tp,tp,-32
 144:	1006                	c.slli	zero,0x21
 146:	02000017          	auipc	zero,0x2000
 14a:	0024                	addi	s1,sp,8
 14c:	0b3e0b0b          	0xb3e0b0b
 150:	00000e03          	lb	t3,0(zero) # 0 <__global_pointer$-0x10000000>
 154:	03001603          	lh	a2,48(zero) # 30 <__global_pointer$-0xfffffd0>
 158:	3a0e                	fld	fs4,224(sp)
 15a:	390b3b0b          	0x390b3b0b
 15e:	0013490b          	0x13490b
 162:	0400                	addi	s0,sp,512
 164:	0024                	addi	s1,sp,8
 166:	0b3e0b0b          	0xb3e0b0b
 16a:	00000803          	lb	a6,0(zero) # 0 <__global_pointer$-0x10000000>
 16e:	1305                	addi	t1,t1,-31
 170:	0301                	addi	t1,t1,0
 172:	0b0e                	slli	s6,s6,0x3
 174:	3b0b3a0b          	0x3b0b3a0b
 178:	010b390b          	0x10b390b
 17c:	06000013          	li	zero,96
 180:	000d                	c.nop	3
 182:	0b3a0e03          	lb	t3,179(s4)
 186:	0b390b3b          	0xb390b3b
 18a:	1349                	addi	t1,t1,-14
 18c:	0b38                	addi	a4,sp,408
 18e:	0000                	unimp
 190:	3f012e07          	flw	ft8,1008(sp)
 194:	0319                	addi	t1,t1,6
 196:	3a0e                	fld	fs4,224(sp)
 198:	390b3b0b          	0x390b3b0b
 19c:	4919270b          	0x4919270b
 1a0:	12011113          	0x12011113
 1a4:	4006                	0x4006
 1a6:	9618                	0x9618
 1a8:	1942                	slli	s2,s2,0x30
 1aa:	1301                	addi	t1,t1,-32
 1ac:	0000                	unimp
 1ae:	0508                	addi	a0,sp,640
 1b0:	0300                	addi	s0,sp,384
 1b2:	3a0e                	fld	fs4,224(sp)
 1b4:	390b3b0b          	0x390b3b0b
 1b8:	0213490b          	0x213490b
 1bc:	0018                	0x18
 1be:	0900                	addi	s0,sp,144
 1c0:	012e                	slli	sp,sp,0xb
 1c2:	0e03193f 0b3b0b3a 	0xb3b0b3a0e03193f
 1ca:	0b39                	addi	s6,s6,14
 1cc:	13491927          	0x13491927
 1d0:	0111                	addi	sp,sp,4
 1d2:	0612                	slli	a2,a2,0x4
 1d4:	1840                	addi	s0,sp,52
 1d6:	01194297          	auipc	t0,0x1194
 1da:	0a000013          	li	zero,160
 1de:	012e                	slli	sp,sp,0xb
 1e0:	0e03193f 0b3b0b3a 	0xb3b0b3a0e03193f
 1e8:	0b39                	addi	s6,s6,14
 1ea:	01111927          	0x1111927
 1ee:	0612                	slli	a2,a2,0x4
 1f0:	1840                	addi	s0,sp,52
 1f2:	01194297          	auipc	t0,0x1194
 1f6:	0b000013          	li	zero,176
 1fa:	012e                	slli	sp,sp,0xb
 1fc:	0b3a0e03          	lb	t3,179(s4)
 200:	0b390b3b          	0xb390b3b
 204:	13491927          	0x13491927
 208:	0111                	addi	sp,sp,4
 20a:	0612                	slli	a2,a2,0x4
 20c:	1840                	addi	s0,sp,52
 20e:	00194297          	auipc	t0,0x194
 212:	0000                	unimp
 214:	1101                	addi	sp,sp,-32
 216:	2501                	jal	816 <__global_pointer$-0xffff7ea>
 218:	130e                	slli	t1,t1,0x23
 21a:	1b0e030b          	0x1b0e030b
 21e:	110e                	slli	sp,sp,0x23
 220:	1201                	addi	tp,tp,-32
 222:	1006                	c.slli	zero,0x21
 224:	02000017          	auipc	zero,0x2000
 228:	0024                	addi	s1,sp,8
 22a:	0b3e0b0b          	0xb3e0b0b
 22e:	00000e03          	lb	t3,0(zero) # 0 <__global_pointer$-0x10000000>
 232:	03001603          	lh	a2,48(zero) # 30 <__global_pointer$-0xfffffd0>
 236:	3a0e                	fld	fs4,224(sp)
 238:	390b3b0b          	0x390b3b0b
 23c:	0013490b          	0x13490b
 240:	0400                	addi	s0,sp,512
 242:	0024                	addi	s1,sp,8
 244:	0b3e0b0b          	0xb3e0b0b
 248:	00000803          	lb	a6,0(zero) # 0 <__global_pointer$-0x10000000>
 24c:	0f05                	addi	t5,t5,1
 24e:	0b00                	addi	s0,sp,400
 250:	0013490b          	0x13490b
 254:	0600                	addi	s0,sp,768
 256:	0115                	addi	sp,sp,5
 258:	13011927          	0x13011927
 25c:	0000                	unimp
 25e:	49000507          	0x49000507
 262:	08000013          	li	zero,128
 266:	0101                	addi	sp,sp,0
 268:	1349                	addi	t1,t1,-14
 26a:	1301                	addi	t1,t1,-32
 26c:	0000                	unimp
 26e:	2109                	jal	670 <__global_pointer$-0xffff990>
 270:	4900                	lw	s0,16(a0)
 272:	000b2f13          	slti	t5,s6,0
 276:	0a00                	addi	s0,sp,272
 278:	0034                	addi	a3,sp,8
 27a:	0b3a0e03          	lb	t3,179(s4)
 27e:	0b390b3b          	0xb390b3b
 282:	1349                	addi	t1,t1,-14
 284:	193c193f 340b0000 	0x340b0000193c193f
 28c:	4700                	lw	s0,8(a4)
 28e:	3b0b3a13          	sltiu	s4,s6,944
 292:	020b390b          	0x20b390b
 296:	0018                	0x18
 298:	0c00                	addi	s0,sp,528
 29a:	012e                	slli	sp,sp,0xb
 29c:	0e03193f 0b3b0b3a 	0xb3b0b3a0e03193f
 2a4:	0b39                	addi	s6,s6,14
 2a6:	13491927          	0x13491927
 2aa:	0111                	addi	sp,sp,4
 2ac:	0612                	slli	a2,a2,0x4
 2ae:	1840                	addi	s0,sp,52
 2b0:	4296                	lw	t0,68(sp)
 2b2:	0119                	addi	sp,sp,6
 2b4:	0d000013          	li	zero,208
 2b8:	0005                	c.nop	1
 2ba:	0b3a0e03          	lb	t3,179(s4)
 2be:	0b390b3b          	0xb390b3b
 2c2:	1349                	addi	t1,t1,-14
 2c4:	1802                	slli	a6,a6,0x20
 2c6:	0000                	unimp
 2c8:	050e                	slli	a0,a0,0x3
 2ca:	0300                	addi	s0,sp,384
 2cc:	3a08                	fld	fa0,48(a2)
 2ce:	390b3b0b          	0x390b3b0b
 2d2:	0213490b          	0x213490b
 2d6:	0018                	0x18
 2d8:	0f00                	addi	s0,sp,912
 2da:	0034                	addi	a3,sp,8
 2dc:	0b3a0e03          	lb	t3,179(s4)
 2e0:	0b390b3b          	0xb390b3b
 2e4:	1349                	addi	t1,t1,-14
 2e6:	1802                	slli	a6,a6,0x20
 2e8:	0000                	unimp
 2ea:	0b10                	addi	a2,sp,400
 2ec:	1101                	addi	sp,sp,-32
 2ee:	1201                	addi	tp,tp,-32
 2f0:	0106                	slli	sp,sp,0x1
 2f2:	11000013          	li	zero,272
 2f6:	012e                	slli	sp,sp,0xb
 2f8:	0e03193f 0b3b0b3a 	0xb3b0b3a0e03193f
 300:	0b39                	addi	s6,s6,14
 302:	1349                	addi	t1,t1,-14
 304:	193c                	addi	a5,sp,184
 306:	0000                	unimp
 308:	1812                	slli	a6,a6,0x24
 30a:	0000                	unimp
 30c:	1300                	addi	s0,sp,416
 30e:	0111010b          	0x111010b
 312:	0612                	slli	a2,a2,0x4
 314:	0000                	unimp
 316:	2e14                	fld	fa3,24(a2)
 318:	3f01                	jal	228 <__global_pointer$-0xffffdd8>
 31a:	0319                	addi	t1,t1,6
 31c:	3a0e                	fld	fs4,224(sp)
 31e:	390b3b0b          	0x390b3b0b
 322:	1119270b          	0x1119270b
 326:	1201                	addi	tp,tp,-32
 328:	4006                	0x4006
 32a:	9718                	0x9718
 32c:	1942                	slli	s2,s2,0x30
 32e:	1301                	addi	t1,t1,-32
 330:	0000                	unimp
 332:	2e15                	jal	666 <__global_pointer$-0xffff99a>
 334:	3f01                	jal	244 <__global_pointer$-0xffffdbc>
 336:	0319                	addi	t1,t1,6
 338:	3a0e                	fld	fs4,224(sp)
 33a:	390b3b0b          	0x390b3b0b
 33e:	4919270b          	0x4919270b
 342:	12011113          	0x12011113
 346:	4006                	0x4006
 348:	9718                	0x9718
 34a:	1942                	slli	s2,s2,0x30
 34c:	0000                	unimp
 34e:	0100                	addi	s0,sp,128
 350:	0111                	addi	sp,sp,4
 352:	0e25                	addi	t3,t3,9
 354:	0e030b13          	addi	s6,t1,224
 358:	01110e1b          	0x1110e1b
 35c:	0612                	slli	a2,a2,0x4
 35e:	1710                	addi	a2,sp,928
 360:	0000                	unimp
 362:	2402                	fld	fs0,0(sp)
 364:	0b00                	addi	s0,sp,400
 366:	030b3e0b          	0x30b3e0b
 36a:	000e                	c.slli	zero,0x3
 36c:	0300                	addi	s0,sp,384
 36e:	0016                	c.slli	zero,0x5
 370:	0b3a0e03          	lb	t3,179(s4)
 374:	0b390b3b          	0xb390b3b
 378:	1349                	addi	t1,t1,-14
 37a:	0000                	unimp
 37c:	2404                	fld	fs1,8(s0)
 37e:	0b00                	addi	s0,sp,400
 380:	030b3e0b          	0x30b3e0b
 384:	0008                	0x8
 386:	0500                	addi	s0,sp,640
 388:	0026                	c.slli	zero,0x9
 38a:	1349                	addi	t1,t1,-14
 38c:	0000                	unimp
 38e:	0f06                	slli	t5,t5,0x1
 390:	0b00                	addi	s0,sp,400
 392:	0013490b          	0x13490b
 396:	0700                	addi	s0,sp,896
 398:	0115                	addi	sp,sp,5
 39a:	13011927          	0x13011927
 39e:	0000                	unimp
 3a0:	0508                	addi	a0,sp,640
 3a2:	4900                	lw	s0,16(a0)
 3a4:	09000013          	li	zero,144
 3a8:	0101                	addi	sp,sp,0
 3aa:	1349                	addi	t1,t1,-14
 3ac:	1301                	addi	t1,t1,-32
 3ae:	0000                	unimp
 3b0:	210a                	fld	ft2,128(sp)
 3b2:	4900                	lw	s0,16(a0)
 3b4:	000b2f13          	slti	t5,s6,0
 3b8:	0b00                	addi	s0,sp,400
 3ba:	0034                	addi	a3,sp,8
 3bc:	0b3a0e03          	lb	t3,179(s4)
 3c0:	0b390b3b          	0xb390b3b
 3c4:	1349                	addi	t1,t1,-14
 3c6:	193c193f 340c0000 	0x340c0000193c193f
 3ce:	4700                	lw	s0,8(a4)
 3d0:	3b0b3a13          	sltiu	s4,s6,944
 3d4:	020b390b          	0x20b390b
 3d8:	0018                	0x18
 3da:	0d00                	addi	s0,sp,656
 3dc:	0e030113          	addi	sp,t1,224
 3e0:	0b3a0b0b          	0xb3a0b0b
 3e4:	0b390b3b          	0xb390b3b
 3e8:	1301                	addi	t1,t1,-32
 3ea:	0000                	unimp
 3ec:	0d0e                	slli	s10,s10,0x3
 3ee:	0300                	addi	s0,sp,384
 3f0:	3a0e                	fld	fs4,224(sp)
 3f2:	390b3b0b          	0x390b3b0b
 3f6:	3813490b          	0x3813490b
 3fa:	0f00000b          	0xf00000b
 3fe:	012e                	slli	sp,sp,0xb
 400:	0e03193f 0b3b0b3a 	0xb3b0b3a0e03193f
 408:	0b39                	addi	s6,s6,14
 40a:	01111927          	0x1111927
 40e:	0612                	slli	a2,a2,0x4
 410:	1840                	addi	s0,sp,52
 412:	4296                	lw	t0,68(sp)
 414:	0119                	addi	sp,sp,6
 416:	10000013          	li	zero,256
 41a:	0005                	c.nop	1
 41c:	0b3a0e03          	lb	t3,179(s4)
 420:	0b390b3b          	0xb390b3b
 424:	1349                	addi	t1,t1,-14
 426:	1802                	slli	a6,a6,0x20
 428:	0000                	unimp
 42a:	2e11                	jal	73e <__global_pointer$-0xffff8c2>
 42c:	3f01                	jal	33c <__global_pointer$-0xffffcc4>
 42e:	0319                	addi	t1,t1,6
 430:	3a0e                	fld	fs4,224(sp)
 432:	390b3b0b          	0x390b3b0b
 436:	1113490b          	0x1113490b
 43a:	1201                	addi	tp,tp,-32
 43c:	4006                	0x4006
 43e:	9618                	0x9618
 440:	1942                	slli	s2,s2,0x30
 442:	1301                	addi	t1,t1,-32
 444:	0000                	unimp
 446:	3412                	fld	fs0,288(sp)
 448:	0300                	addi	s0,sp,384
 44a:	3a0e                	fld	fs4,224(sp)
 44c:	390b3b0b          	0x390b3b0b
 450:	0213490b          	0x213490b
 454:	0018                	0x18
 456:	1300                	addi	s0,sp,416
 458:	0005                	c.nop	1
 45a:	0b3a0803          	lb	a6,179(s4)
 45e:	0b390b3b          	0xb390b3b
 462:	1349                	addi	t1,t1,-14
 464:	1802                	slli	a6,a6,0x20
 466:	0000                	unimp
 468:	3414                	fld	fa3,40(s0)
 46a:	0300                	addi	s0,sp,384
 46c:	3a08                	fld	fa0,48(a2)
 46e:	390b3b0b          	0x390b3b0b
 472:	0213490b          	0x213490b
 476:	0018                	0x18
 478:	1500                	addi	s0,sp,672
 47a:	012e                	slli	sp,sp,0xb
 47c:	0e03193f 0b3b0b3a 	0xb3b0b3a0e03193f
 484:	0b39                	addi	s6,s6,14
 486:	13491927          	0x13491927
 48a:	0111                	addi	sp,sp,4
 48c:	0612                	slli	a2,a2,0x4
 48e:	1840                	addi	s0,sp,52
 490:	01194297          	auipc	t0,0x1194
 494:	16000013          	li	zero,352
 498:	012e                	slli	sp,sp,0xb
 49a:	0b3a0e03          	lb	t3,179(s4)
 49e:	0b390b3b          	0xb390b3b
 4a2:	13491927          	0x13491927
 4a6:	0111                	addi	sp,sp,4
 4a8:	0612                	slli	a2,a2,0x4
 4aa:	1840                	addi	s0,sp,52
 4ac:	4296                	lw	t0,68(sp)
 4ae:	0119                	addi	sp,sp,6
 4b0:	17000013          	li	zero,368
 4b4:	012e                	slli	sp,sp,0xb
 4b6:	0b3a0e03          	lb	t3,179(s4)
 4ba:	0b390b3b          	0xb390b3b
 4be:	13491927          	0x13491927
 4c2:	0111                	addi	sp,sp,4
 4c4:	0612                	slli	a2,a2,0x4
 4c6:	1840                	addi	s0,sp,52
 4c8:	01194297          	auipc	t0,0x1194
 4cc:	18000013          	li	zero,384
 4d0:	012e                	slli	sp,sp,0xb
 4d2:	0b3a0e03          	lb	t3,179(s4)
 4d6:	0b390b3b          	0xb390b3b
 4da:	13491927          	0x13491927
 4de:	0111                	addi	sp,sp,4
 4e0:	0612                	slli	a2,a2,0x4
 4e2:	1840                	addi	s0,sp,52
 4e4:	00194297          	auipc	t0,0x194
 4e8:	0000                	unimp
 4ea:	1101                	addi	sp,sp,-32
 4ec:	2501                	jal	aec <__global_pointer$-0xffff514>
 4ee:	130e                	slli	t1,t1,0x23
 4f0:	1b0e030b          	0x1b0e030b
 4f4:	110e                	slli	sp,sp,0x23
 4f6:	1201                	addi	tp,tp,-32
 4f8:	1006                	c.slli	zero,0x21
 4fa:	02000017          	auipc	zero,0x2000
 4fe:	0024                	addi	s1,sp,8
 500:	0b3e0b0b          	0xb3e0b0b
 504:	00000e03          	lb	t3,0(zero) # 0 <__global_pointer$-0x10000000>
 508:	03001603          	lh	a2,48(zero) # 30 <__global_pointer$-0xfffffd0>
 50c:	3a0e                	fld	fs4,224(sp)
 50e:	390b3b0b          	0x390b3b0b
 512:	0013490b          	0x13490b
 516:	0400                	addi	s0,sp,512
 518:	0024                	addi	s1,sp,8
 51a:	0b3e0b0b          	0xb3e0b0b
 51e:	00000803          	lb	a6,0(zero) # 0 <__global_pointer$-0x10000000>
 522:	2605                	jal	842 <__global_pointer$-0xffff7be>
 524:	4900                	lw	s0,16(a0)
 526:	06000013          	li	zero,96
 52a:	0b0b000f          	0xb0b000f
 52e:	1349                	addi	t1,t1,-14
 530:	0000                	unimp
 532:	27011507          	0x27011507
 536:	0119                	addi	sp,sp,6
 538:	08000013          	li	zero,128
 53c:	0005                	c.nop	1
 53e:	1349                	addi	t1,t1,-14
 540:	0000                	unimp
 542:	0109                	addi	sp,sp,2
 544:	4901                	li	s2,0
 546:	00130113          	addi	sp,t1,1
 54a:	0a00                	addi	s0,sp,272
 54c:	0021                	c.nop	8
 54e:	1349                	addi	t1,t1,-14
 550:	00000b2f          	0xb2f
 554:	0300340b          	0x300340b
 558:	3a0e                	fld	fs4,224(sp)
 55a:	390b3b0b          	0x390b3b0b
 55e:	3f13490b          	0x3f13490b
 562:	3c19                	jal	ffffff78 <_etext+0xdfffef14>
 564:	0019                	c.nop	6
 566:	0c00                	addi	s0,sp,528
 568:	012e                	slli	sp,sp,0xb
 56a:	0e03193f 0b3b0b3a 	0xb3b0b3a0e03193f
 572:	0b39                	addi	s6,s6,14
 574:	01111927          	0x1111927
 578:	0612                	slli	a2,a2,0x4
 57a:	1840                	addi	s0,sp,52
 57c:	4296                	lw	t0,68(sp)
 57e:	0119                	addi	sp,sp,6
 580:	0d000013          	li	zero,208
 584:	0005                	c.nop	1
 586:	0b3a0803          	lb	a6,179(s4)
 58a:	0b390b3b          	0xb390b3b
 58e:	1349                	addi	t1,t1,-14
 590:	1802                	slli	a6,a6,0x20
 592:	0000                	unimp
 594:	050e                	slli	a0,a0,0x3
 596:	0300                	addi	s0,sp,384
 598:	3a0e                	fld	fs4,224(sp)
 59a:	390b3b0b          	0x390b3b0b
 59e:	0213490b          	0x213490b
 5a2:	0018                	0x18
 5a4:	0f00                	addi	s0,sp,912
 5a6:	012e                	slli	sp,sp,0xb
 5a8:	0e03193f 0b3b0b3a 	0xb3b0b3a0e03193f
 5b0:	0b39                	addi	s6,s6,14
 5b2:	13491927          	0x13491927
 5b6:	0111                	addi	sp,sp,4
 5b8:	0612                	slli	a2,a2,0x4
 5ba:	1840                	addi	s0,sp,52
 5bc:	4296                	lw	t0,68(sp)
 5be:	0119                	addi	sp,sp,6
 5c0:	10000013          	li	zero,256
 5c4:	0034                	addi	a3,sp,8
 5c6:	0b3a0e03          	lb	t3,179(s4)
 5ca:	0b390b3b          	0xb390b3b
 5ce:	1349                	addi	t1,t1,-14
 5d0:	1802                	slli	a6,a6,0x20
 5d2:	0000                	unimp
 5d4:	2e11                	jal	8e8 <__global_pointer$-0xffff718>
 5d6:	3f00                	fld	fs0,56(a4)
 5d8:	0319                	addi	t1,t1,6
 5da:	3a0e                	fld	fs4,224(sp)
 5dc:	390b3b0b          	0x390b3b0b
 5e0:	1113490b          	0x1113490b
 5e4:	1201                	addi	tp,tp,-32
 5e6:	4006                	0x4006
 5e8:	9618                	0x9618
 5ea:	1942                	slli	s2,s2,0x30
 5ec:	0000                	unimp
 5ee:	2e12                	fld	ft8,256(sp)
 5f0:	0301                	addi	t1,t1,0
 5f2:	3a0e                	fld	fs4,224(sp)
 5f4:	390b3b0b          	0x390b3b0b
 5f8:	1119270b          	0x1119270b
 5fc:	1201                	addi	tp,tp,-32
 5fe:	4006                	0x4006
 600:	9618                	0x9618
 602:	1942                	slli	s2,s2,0x30
 604:	1301                	addi	t1,t1,-32
 606:	0000                	unimp
 608:	03012e13          	slti	t3,sp,48
 60c:	3a0e                	fld	fs4,224(sp)
 60e:	390b3b0b          	0x390b3b0b
 612:	4919270b          	0x4919270b
 616:	12011113          	0x12011113
 61a:	4006                	0x4006
 61c:	9718                	0x9718
 61e:	1942                	slli	s2,s2,0x30
 620:	0000                	unimp
 622:	0100                	addi	s0,sp,128
 624:	0111                	addi	sp,sp,4
 626:	0e25                	addi	t3,t3,9
 628:	0e030b13          	addi	s6,t1,224
 62c:	01110e1b          	0x1110e1b
 630:	0612                	slli	a2,a2,0x4
 632:	1710                	addi	a2,sp,928
 634:	0000                	unimp
 636:	2402                	fld	fs0,0(sp)
 638:	0b00                	addi	s0,sp,400
 63a:	030b3e0b          	0x30b3e0b
 63e:	000e                	c.slli	zero,0x3
 640:	0300                	addi	s0,sp,384
 642:	0016                	c.slli	zero,0x5
 644:	0b3a0e03          	lb	t3,179(s4)
 648:	0b390b3b          	0xb390b3b
 64c:	1349                	addi	t1,t1,-14
 64e:	0000                	unimp
 650:	2404                	fld	fs1,8(s0)
 652:	0b00                	addi	s0,sp,400
 654:	030b3e0b          	0x30b3e0b
 658:	0008                	0x8
 65a:	0500                	addi	s0,sp,640
 65c:	0b0b000f          	0xb0b000f
 660:	1349                	addi	t1,t1,-14
 662:	0000                	unimp
 664:	1506                	slli	a0,a0,0x21
 666:	2701                	jal	d66 <__global_pointer$-0xffff29a>
 668:	0119                	addi	sp,sp,6
 66a:	07000013          	li	zero,112
 66e:	0005                	c.nop	1
 670:	1349                	addi	t1,t1,-14
 672:	0000                	unimp
 674:	0108                	addi	a0,sp,128
 676:	4901                	li	s2,0
 678:	00130113          	addi	sp,t1,1
 67c:	0900                	addi	s0,sp,144
 67e:	0021                	c.nop	8
 680:	1349                	addi	t1,t1,-14
 682:	00000b2f          	0xb2f
 686:	340a                	fld	fs0,160(sp)
 688:	0300                	addi	s0,sp,384
 68a:	3a0e                	fld	fs4,224(sp)
 68c:	390b3b0b          	0x390b3b0b
 690:	3f13490b          	0x3f13490b
 694:	3c19                	jal	aa <__global_pointer$-0xfffff56>
 696:	0019                	c.nop	6
 698:	0b00                	addi	s0,sp,400
 69a:	012e                	slli	sp,sp,0xb
 69c:	0e03193f 0b3b0b3a 	0xb3b0b3a0e03193f
 6a4:	0b39                	addi	s6,s6,14
 6a6:	13491927          	0x13491927
 6aa:	0111                	addi	sp,sp,4
 6ac:	0612                	slli	a2,a2,0x4
 6ae:	1840                	addi	s0,sp,52
 6b0:	4296                	lw	t0,68(sp)
 6b2:	0019                	c.nop	6
 6b4:	0c00                	addi	s0,sp,528
 6b6:	0111010b          	0x111010b
 6ba:	0612                	slli	a2,a2,0x4
 6bc:	0000                	unimp
 6be:	2e0d                	jal	9f0 <__global_pointer$-0xffff610>
 6c0:	3f01                	jal	5d0 <__global_pointer$-0xffffa30>
 6c2:	0319                	addi	t1,t1,6
 6c4:	3a0e                	fld	fs4,224(sp)
 6c6:	390b3b0b          	0x390b3b0b
 6ca:	3c13490b          	0x3c13490b
 6ce:	0019                	c.nop	6
 6d0:	0e00                	addi	s0,sp,784
 6d2:	0018                	0x18
 6d4:	0000                	unimp
 6d6:	00              	Address 0x00000000000006d6 is out of bounds.


Disassembly of section .debug_aranges:

00000000 <.debug_aranges>:
   0:	001c                	0x1c
   2:	0000                	unimp
   4:	0002                	c.slli64	zero
   6:	0000                	unimp
   8:	0000                	unimp
   a:	0004                	0x4
   c:	0000                	unimp
   e:	0000                	unimp
  10:	0144                	addi	s1,sp,132
  12:	2000                	fld	fs0,0(s0)
  14:	00bc                	addi	a5,sp,72
  16:	0000                	unimp
  18:	0000                	unimp
  1a:	0000                	unimp
  1c:	0000                	unimp
  1e:	0000                	unimp
  20:	001c                	0x1c
  22:	0000                	unimp
  24:	0002                	c.slli64	zero
  26:	00ee                	slli	ra,ra,0x1b
  28:	0000                	unimp
  2a:	0004                	0x4
  2c:	0000                	unimp
  2e:	0000                	unimp
  30:	0200                	addi	s0,sp,256
  32:	2000                	fld	fs0,0(s0)
  34:	009c                	addi	a5,sp,64
  36:	0000                	unimp
  38:	0000                	unimp
  3a:	0000                	unimp
  3c:	0000                	unimp
  3e:	0000                	unimp
  40:	001c                	0x1c
  42:	0000                	unimp
  44:	0002                	c.slli64	zero
  46:	018a                	slli	gp,gp,0x2
  48:	0000                	unimp
  4a:	0004                	0x4
  4c:	0000                	unimp
  4e:	0000                	unimp
  50:	029c                	addi	a5,sp,320
  52:	2000                	fld	fs0,0(s0)
  54:	0280                	addi	s0,sp,320
  56:	0000                	unimp
  58:	0000                	unimp
  5a:	0000                	unimp
  5c:	0000                	unimp
  5e:	0000                	unimp
  60:	001c                	0x1c
  62:	0000                	unimp
  64:	0002                	c.slli64	zero
  66:	0000042b          	0x42b
  6a:	0004                	0x4
  6c:	0000                	unimp
  6e:	0000                	unimp
  70:	051c                	addi	a5,sp,640
  72:	2000                	fld	fs0,0(s0)
  74:	0110                	addi	a2,sp,128
  76:	0000                	unimp
  78:	0000                	unimp
  7a:	0000                	unimp
  7c:	0000                	unimp
  7e:	0000                	unimp
  80:	001c                	0x1c
  82:	0000                	unimp
  84:	0002                	c.slli64	zero
  86:	0622                	slli	a2,a2,0x8
  88:	0000                	unimp
  8a:	0004                	0x4
  8c:	0000                	unimp
  8e:	0000                	unimp
  90:	062c                	addi	a1,sp,776
  92:	2000                	fld	fs0,0(s0)
  94:	05c0                	addi	s0,sp,708
  96:	0000                	unimp
  98:	0000                	unimp
  9a:	0000                	unimp
  9c:	0000                	unimp
  9e:	0000                	unimp
  a0:	001c                	0x1c
  a2:	0000                	unimp
  a4:	0002                	c.slli64	zero
  a6:	0bca                	slli	s7,s7,0x12
  a8:	0000                	unimp
  aa:	0004                	0x4
  ac:	0000                	unimp
  ae:	0000                	unimp
  b0:	0bec                	addi	a1,sp,476
  b2:	2000                	fld	fs0,0(s0)
  b4:	0420                	addi	s0,sp,520
  b6:	0000                	unimp
  b8:	0000                	unimp
  ba:	0000                	unimp
  bc:	0000                	unimp
  be:	0000                	unimp
  c0:	001c                	0x1c
  c2:	0000                	unimp
  c4:	0002                	c.slli64	zero
  c6:	00000fc7          	fmsub.s	ft11,ft0,ft0,ft0,rne
  ca:	0004                	0x4
  cc:	0000                	unimp
  ce:	0000                	unimp
  d0:	100c                	addi	a1,sp,32
  d2:	2000                	fld	fs0,0(s0)
  d4:	0058                	addi	a4,sp,4
  d6:	0000                	unimp
  d8:	0000                	unimp
  da:	0000                	unimp
  dc:	0000                	unimp
  de:	0000                	unimp

Disassembly of section .debug_line:

00000000 <.debug_line>:
   0:	0129                	addi	sp,sp,10
   2:	0000                	unimp
   4:	00d90003          	lb	zero,13(s2) # 100d <__global_pointer$-0xfffeff3>
   8:	0000                	unimp
   a:	0101                	addi	sp,sp,0
   c:	000d0efb          	0xd0efb
  10:	0101                	addi	sp,sp,0
  12:	0101                	addi	sp,sp,0
  14:	0000                	unimp
  16:	0100                	addi	s0,sp,128
  18:	0000                	unimp
  1a:	2f01                	jal	72a <__global_pointer$-0xffff8d6>
  1c:	6f68                	flw	fa0,92(a4)
  1e:	656d                	lui	a0,0x1b
  20:	72656d2f          	0x72656d2f
  24:	2f6c                	fld	fa1,216(a4)
  26:	68746967          	0x68746967
  2a:	6275                	lui	tp,0x1d
  2c:	725f 7065 736f      	0x736f7065725f
  32:	617a612f          	0x617a612f
  36:	6964                	flw	fs1,84(a0)
  38:	732d                	lui	t1,0xfffeb
  3a:	6b64                	flw	fs1,84(a4)
  3c:	7073622f          	0x7073622f
  40:	6972642f          	0x6972642f
  44:	6576                	flw	fa0,92(sp)
  46:	7372                	flw	ft6,60(sp)
  48:	6d69742f          	0x6d69742f
  4c:	7265                	lui	tp,0xffff9
  4e:	2f00                	fld	fs0,24(a4)
  50:	6f74                	flw	fa3,92(a4)
  52:	2f736c6f          	jal	s8,36b48 <__global_pointer$-0xffc94b8>
  56:	6972                	flw	fs2,28(sp)
  58:	2f766373          	csrrsi	t1,0x2f7,12
  5c:	6972                	flw	fs2,28(sp)
  5e:	33766373          	csrrsi	t1,mhpmevent23,12
  62:	2d32                	fld	fs10,264(sp)
  64:	6e75                	lui	t3,0x1d
  66:	776f6e6b          	0x776f6e6b
  6a:	2d6e                	fld	fs10,216(sp)
  6c:	6c65                	lui	s8,0x19
  6e:	2f66                	fld	ft10,88(sp)
  70:	2d737973          	csrrci	s2,0x2d7,6
  74:	6e69                	lui	t3,0x1a
  76:	64756c63          	bltu	a0,t2,6ce <__global_pointer$-0xffff932>
  7a:	2f65                	jal	832 <__global_pointer$-0xffff7ce>
  7c:	616d                	addi	sp,sp,240
  7e:	6e696863          	bltu	s2,t1,76e <__global_pointer$-0xffff892>
  82:	0065                	c.nop	25
  84:	6f6f742f          	0x6f6f742f
  88:	736c                	flw	fa1,100(a4)
  8a:	7369722f          	0x7369722f
  8e:	722f7663          	bgeu	t5,sp,7ba <__global_pointer$-0xffff846>
  92:	7369                	lui	t1,0xffffa
  94:	32337663          	bgeu	t1,gp,3c0 <__global_pointer$-0xffffc40>
  98:	752d                	lui	a0,0xfffeb
  9a:	6b6e                	flw	fs6,216(sp)
  9c:	6f6e                	flw	ft10,216(sp)
  9e:	652d6e77          	0x652d6e77
  a2:	666c                	flw	fa1,76(a2)
  a4:	7379732f          	0x7379732f
  a8:	692d                	lui	s2,0xb
  aa:	636e                	flw	ft6,216(sp)
  ac:	756c                	flw	fa1,108(a0)
  ae:	6564                	flw	fs1,76(a0)
  b0:	7379732f          	0x7379732f
  b4:	0000                	unimp
  b6:	6974                	flw	fa3,84(a0)
  b8:	656d                	lui	a0,0x1b
  ba:	2e72                	fld	ft8,280(sp)
  bc:	00010063          	beqz	sp,bc <__global_pointer$-0xfffff44>
  c0:	5f00                	lw	s0,56(a4)
  c2:	6564                	flw	fs1,76(a0)
  c4:	6166                	flw	ft2,88(sp)
  c6:	6c75                	lui	s8,0x1d
  c8:	5f74                	lw	a3,124(a4)
  ca:	7974                	flw	fa3,116(a0)
  cc:	6570                	flw	fa2,76(a0)
  ce:	00682e73          	csrrs	t3,0x6,a6
  d2:	0002                	c.slli64	zero
  d4:	5f00                	lw	s0,56(a4)
  d6:	69647473          	csrrci	s0,0x696,8
  da:	746e                	flw	fs0,248(sp)
  dc:	682e                	flw	fa6,200(sp)
  de:	0300                	addi	s0,sp,384
  e0:	0000                	unimp
  e2:	0500                	addi	s0,sp,640
  e4:	0069                	c.nop	26
  e6:	0205                	addi	tp,tp,1
  e8:	0144                	addi	s1,sp,132
  ea:	2000                	fld	fs0,0(s0)
  ec:	0516                	slli	a0,a0,0x5
  ee:	0305                	addi	t1,t1,1
  f0:	0901                	addi	s2,s2,0
  f2:	0014                	0x14
  f4:	0501                	addi	a0,a0,0
  f6:	0301                	addi	t1,t1,0
  f8:	090e                	slli	s2,s2,0x3
  fa:	002c                	addi	a1,sp,8
  fc:	0301                	addi	t1,t1,0
  fe:	0904                	addi	s1,sp,144
 100:	0010                	0x10
 102:	0501                	addi	a0,a0,0
 104:	030a                	slli	t1,t1,0x2
 106:	00100903          	lb	s2,1(zero) # 1 <__global_pointer$-0xfffffff>
 10a:	0501                	addi	a0,a0,0
 10c:	0901030b          	0x901030b
 110:	000c                	0xc
 112:	0501                	addi	a0,a0,0
 114:	0301                	addi	t1,t1,0
 116:	0902                	c.slli64	s2
 118:	000c                	0xc
 11a:	0301                	addi	t1,t1,0
 11c:	091d                	addi	s2,s2,7
 11e:	0030                	addi	a2,sp,8
 120:	0301                	addi	t1,t1,0
 122:	00040903          	lb	s2,0(s0) # 1091000 <__global_pointer$-0xef6f000>
 126:	0901                	addi	s2,s2,0
 128:	0010                	0x10
 12a:	0100                	addi	s0,sp,128
 12c:	a801                	j	13c <__global_pointer$-0xffffec4>
 12e:	0000                	unimp
 130:	0300                	addi	s0,sp,384
 132:	4e00                	lw	s0,24(a2)
 134:	0000                	unimp
 136:	0100                	addi	s0,sp,128
 138:	fb01                	bnez	a4,48 <__global_pointer$-0xfffffb8>
 13a:	0d0e                	slli	s10,s10,0x3
 13c:	0100                	addi	s0,sp,128
 13e:	0101                	addi	sp,sp,0
 140:	0001                	nop
 142:	0000                	unimp
 144:	0001                	nop
 146:	0100                	addi	s0,sp,128
 148:	6d6f682f          	0x6d6f682f
 14c:	2f65                	jal	904 <__global_pointer$-0xffff6fc>
 14e:	656d                	lui	a0,0x1b
 150:	6c72                	flw	fs8,28(sp)
 152:	7469672f          	0x7469672f
 156:	7568                	flw	fa0,108(a0)
 158:	5f62                	lw	t5,56(sp)
 15a:	6572                	flw	fa0,28(sp)
 15c:	6f70                	flw	fa2,92(a4)
 15e:	7a612f73          	csrrs	t5,0x7a6,sp
 162:	6461                	lui	s0,0x18
 164:	2d69                	jal	7fe <__global_pointer$-0xffff802>
 166:	2f6b6473          	csrrsi	s0,0x2f6,22
 16a:	7362                	flw	ft6,56(sp)
 16c:	2f70                	fld	fa2,216(a4)
 16e:	7264                	flw	fs1,100(a2)
 170:	7669                	lui	a2,0xffffa
 172:	7265                	lui	tp,0xffff9
 174:	77702f73          	csrr	t5,0x777
 178:	006d                	c.nop	27
 17a:	7000                	flw	fs0,32(s0)
 17c:	632e6d77          	0x632e6d77
 180:	0100                	addi	s0,sp,128
 182:	0000                	unimp
 184:	0500                	addi	s0,sp,640
 186:	0001                	nop
 188:	0205                	addi	tp,tp,1
 18a:	0200                	addi	s0,sp,256
 18c:	2000                	fld	fs0,0(s0)
 18e:	0514                	addi	a3,sp,640
 190:	0304                	addi	s1,sp,384
 192:	00140903          	lb	s2,1(s0) # 18001 <__global_pointer$-0xffe7fff>
 196:	0501                	addi	a0,a0,0
 198:	030c                	addi	a1,sp,384
 19a:	000c0903          	lb	s2,0(s8) # 1d000 <__global_pointer$-0xffe3000>
 19e:	0501                	addi	a0,a0,0
 1a0:	030d                	addi	t1,t1,3
 1a2:	0901                	addi	s2,s2,0
 1a4:	000c                	0xc
 1a6:	0501                	addi	a0,a0,0
 1a8:	0301                	addi	t1,t1,0
 1aa:	0902                	c.slli64	s2
 1ac:	000c                	0xc
 1ae:	0301                	addi	t1,t1,0
 1b0:	092d                	addi	s2,s2,11
 1b2:	001c                	0x1c
 1b4:	0501                	addi	a0,a0,0
 1b6:	030c                	addi	a1,sp,384
 1b8:	0969                	addi	s2,s2,26
 1ba:	0004                	0x4
 1bc:	0501                	addi	a0,a0,0
 1be:	030d                	addi	t1,t1,3
 1c0:	0901                	addi	s2,s2,0
 1c2:	000c                	0xc
 1c4:	0501                	addi	a0,a0,0
 1c6:	0301                	addi	t1,t1,0
 1c8:	0902                	c.slli64	s2
 1ca:	000c                	0xc
 1cc:	0301                	addi	t1,t1,0
 1ce:	0914                	addi	a3,sp,144
 1d0:	001c                	0x1c
 1d2:	0901                	addi	s2,s2,0
 1d4:	0010                	0x10
 1d6:	0100                	addi	s0,sp,128
 1d8:	7e01                	lui	t3,0xfffe0
 1da:	0002                	c.slli64	zero
 1dc:	0300                	addi	s0,sp,384
 1de:	1200                	addi	s0,sp,288
 1e0:	0001                	nop
 1e2:	0100                	addi	s0,sp,128
 1e4:	fb01                	bnez	a4,f4 <__global_pointer$-0xfffff0c>
 1e6:	0d0e                	slli	s10,s10,0x3
 1e8:	0100                	addi	s0,sp,128
 1ea:	0101                	addi	sp,sp,0
 1ec:	0001                	nop
 1ee:	0000                	unimp
 1f0:	0001                	nop
 1f2:	0100                	addi	s0,sp,128
 1f4:	6d6f682f          	0x6d6f682f
 1f8:	2f65                	jal	9b0 <__global_pointer$-0xffff650>
 1fa:	656d                	lui	a0,0x1b
 1fc:	6c72                	flw	fs8,28(sp)
 1fe:	7469672f          	0x7469672f
 202:	7568                	flw	fa0,108(a0)
 204:	5f62                	lw	t5,56(sp)
 206:	6572                	flw	fa0,28(sp)
 208:	6f70                	flw	fa2,92(a4)
 20a:	7a612f73          	csrrs	t5,0x7a6,sp
 20e:	6461                	lui	s0,0x18
 210:	2d69                	jal	8aa <__global_pointer$-0xffff756>
 212:	2f6b6473          	csrrsi	s0,0x2f6,22
 216:	7362                	flw	ft6,56(sp)
 218:	2f70                	fld	fa2,216(a4)
 21a:	696c                	flw	fa1,84(a0)
 21c:	0062                	c.slli	zero,0x18
 21e:	6f6f742f          	0x6f6f742f
 222:	736c                	flw	fa1,100(a4)
 224:	7369722f          	0x7369722f
 228:	722f7663          	bgeu	t5,sp,954 <__global_pointer$-0xffff6ac>
 22c:	7369                	lui	t1,0xffffa
 22e:	32337663          	bgeu	t1,gp,55a <__global_pointer$-0xffffaa6>
 232:	752d                	lui	a0,0xfffeb
 234:	6b6e                	flw	fs6,216(sp)
 236:	6f6e                	flw	ft10,216(sp)
 238:	652d6e77          	0x652d6e77
 23c:	666c                	flw	fa1,76(a2)
 23e:	7379732f          	0x7379732f
 242:	692d                	lui	s2,0xb
 244:	636e                	flw	ft6,216(sp)
 246:	756c                	flw	fa1,108(a0)
 248:	6564                	flw	fs1,76(a0)
 24a:	63616d2f          	0x63616d2f
 24e:	6968                	flw	fa0,84(a0)
 250:	656e                	flw	fa0,216(sp)
 252:	2f00                	fld	fs0,24(a4)
 254:	6f74                	flw	fa3,92(a4)
 256:	2f736c6f          	jal	s8,36d4c <__global_pointer$-0xffc92b4>
 25a:	6972                	flw	fs2,28(sp)
 25c:	2f766373          	csrrsi	t1,0x2f7,12
 260:	6972                	flw	fs2,28(sp)
 262:	33766373          	csrrsi	t1,mhpmevent23,12
 266:	2d32                	fld	fs10,264(sp)
 268:	6e75                	lui	t3,0x1d
 26a:	776f6e6b          	0x776f6e6b
 26e:	2d6e                	fld	fs10,216(sp)
 270:	6c65                	lui	s8,0x19
 272:	2f66                	fld	ft10,88(sp)
 274:	2d737973          	csrrci	s2,0x2d7,6
 278:	6e69                	lui	t3,0x1a
 27a:	64756c63          	bltu	a0,t2,8d2 <__global_pointer$-0xffff72e>
 27e:	2f65                	jal	a36 <__global_pointer$-0xffff5ca>
 280:	00737973          	csrrci	s2,0x7,6
 284:	6f6f742f          	0x6f6f742f
 288:	736c                	flw	fa1,100(a4)
 28a:	7369722f          	0x7369722f
 28e:	6c2f7663          	bgeu	t5,sp,95a <__global_pointer$-0xffff6a6>
 292:	6269                	lui	tp,0x1a
 294:	6363672f          	0x6363672f
 298:	7369722f          	0x7369722f
 29c:	32337663          	bgeu	t1,gp,5c8 <__global_pointer$-0xffffa38>
 2a0:	752d                	lui	a0,0xfffeb
 2a2:	6b6e                	flw	fs6,216(sp)
 2a4:	6f6e                	flw	ft10,216(sp)
 2a6:	652d6e77          	0x652d6e77
 2aa:	666c                	flw	fa1,76(a2)
 2ac:	322e392f          	0x322e392f
 2b0:	302e                	fld	ft0,232(sp)
 2b2:	636e692f          	0x636e692f
 2b6:	756c                	flw	fa1,108(a0)
 2b8:	6564                	flw	fs1,76(a0)
 2ba:	0000                	unimp
 2bc:	7475                	lui	s0,0xffffd
 2be:	6c69                	lui	s8,0x1a
 2c0:	00682e73          	csrrs	t3,0x6,a6
 2c4:	0001                	nop
 2c6:	5f00                	lw	s0,56(a4)
 2c8:	6564                	flw	fs1,76(a0)
 2ca:	6166                	flw	ft2,88(sp)
 2cc:	6c75                	lui	s8,0x1d
 2ce:	5f74                	lw	a3,124(a4)
 2d0:	7974                	flw	fa3,116(a0)
 2d2:	6570                	flw	fa2,76(a0)
 2d4:	00682e73          	csrrs	t3,0x6,a6
 2d8:	0002                	c.slli64	zero
 2da:	5f00                	lw	s0,56(a4)
 2dc:	69647473          	csrrci	s0,0x696,8
 2e0:	746e                	flw	fs0,248(sp)
 2e2:	682e                	flw	fa6,200(sp)
 2e4:	0300                	addi	s0,sp,384
 2e6:	0000                	unimp
 2e8:	64647473          	csrrci	s0,0x646,8
 2ec:	6665                	lui	a2,0x19
 2ee:	682e                	flw	fa6,200(sp)
 2f0:	0400                	addi	s0,sp,512
 2f2:	0000                	unimp
 2f4:	0500                	addi	s0,sp,640
 2f6:	0205002f          	0x205002f
 2fa:	029c                	addi	a5,sp,320
 2fc:	2000                	fld	fs0,0(s0)
 2fe:	05010d03          	lb	s10,80(sp)
 302:	0900033b          	0x900033b
 306:	0010                	0x10
 308:	0501                	addi	a0,a0,0
 30a:	0301                	addi	t1,t1,0
 30c:	0900                	addi	s0,sp,144
 30e:	000c                	0xc
 310:	0501                	addi	a0,a0,0
 312:	0331                	addi	t1,t1,12
 314:	00100903          	lb	s2,1(zero) # 1 <__global_pointer$-0xfffffff>
 318:	0501                	addi	a0,a0,0
 31a:	031e                	slli	t1,t1,0x7
 31c:	0901                	addi	s2,s2,0
 31e:	0018                	0x18
 320:	0501                	addi	a0,a0,0
 322:	033a                	slli	t1,t1,0xe
 324:	0900                	addi	s0,sp,144
 326:	0014                	0x14
 328:	0501                	addi	a0,a0,0
 32a:	0301                	addi	t1,t1,0
 32c:	0901                	addi	s2,s2,0
 32e:	0008                	0x8
 330:	0501                	addi	a0,a0,0
 332:	033d                	addi	t1,t1,15
 334:	0902                	c.slli64	s2
 336:	0010                	0x10
 338:	0501                	addi	a0,a0,0
 33a:	0325                	addi	t1,t1,9
 33c:	0901                	addi	s2,s2,0
 33e:	0014                	0x14
 340:	0501                	addi	a0,a0,0
 342:	0301                	addi	t1,t1,0
 344:	0901                	addi	s2,s2,0
 346:	0014                	0x14
 348:	0501                	addi	a0,a0,0
 34a:	0319                	addi	t1,t1,6
 34c:	00100903          	lb	s2,1(zero) # 1 <__global_pointer$-0xfffffff>
 350:	0501                	addi	a0,a0,0
 352:	030a                	slli	t1,t1,0x2
 354:	0901                	addi	s2,s2,0
 356:	0010                	0x10
 358:	0501                	addi	a0,a0,0
 35a:	0301                	addi	t1,t1,0
 35c:	00300903          	lb	s2,3(zero) # 3 <__global_pointer$-0xffffffd>
 360:	0501                	addi	a0,a0,0
 362:	0338                	addi	a4,sp,392
 364:	0904                	addi	s1,sp,144
 366:	0014                	0x14
 368:	0501                	addi	a0,a0,0
 36a:	0316                	slli	t1,t1,0x5
 36c:	0901                	addi	s2,s2,0
 36e:	001c                	0x1c
 370:	0501                	addi	a0,a0,0
 372:	0324                	addi	s1,sp,392
 374:	0900                	addi	s0,sp,144
 376:	0004                	0x4
 378:	0501                	addi	a0,a0,0
 37a:	031c                	addi	a5,sp,384
 37c:	0900                	addi	s0,sp,144
 37e:	0004                	0x4
 380:	0501                	addi	a0,a0,0
 382:	0900030f          	0x900030f
 386:	0004                	0x4
 388:	0501                	addi	a0,a0,0
 38a:	030c                	addi	a1,sp,384
 38c:	0900                	addi	s0,sp,144
 38e:	0004                	0x4
 390:	0501                	addi	a0,a0,0
 392:	031d                	addi	t1,t1,7
 394:	0901                	addi	s2,s2,0
 396:	000c                	0xc
 398:	0501                	addi	a0,a0,0
 39a:	0316                	slli	t1,t1,0x5
 39c:	0900                	addi	s0,sp,144
 39e:	0004                	0x4
 3a0:	0501                	addi	a0,a0,0
 3a2:	032c                	addi	a1,sp,392
 3a4:	0900                	addi	s0,sp,144
 3a6:	0008                	0x8
 3a8:	0501                	addi	a0,a0,0
 3aa:	0324                	addi	s1,sp,392
 3ac:	0900                	addi	s0,sp,144
 3ae:	0004                	0x4
 3b0:	0501                	addi	a0,a0,0
 3b2:	030c                	addi	a1,sp,384
 3b4:	0900                	addi	s0,sp,144
 3b6:	0004                	0x4
 3b8:	0501                	addi	a0,a0,0
 3ba:	030a                	slli	t1,t1,0x2
 3bc:	0901                	addi	s2,s2,0
 3be:	000c                	0xc
 3c0:	0501                	addi	a0,a0,0
 3c2:	0301                	addi	t1,t1,0
 3c4:	0901                	addi	s2,s2,0
 3c6:	0004                	0x4
 3c8:	0501                	addi	a0,a0,0
 3ca:	0332                	slli	t1,t1,0xc
 3cc:	0904                	addi	s1,sp,144
 3ce:	0010                	0x10
 3d0:	0501                	addi	a0,a0,0
 3d2:	030a                	slli	t1,t1,0x2
 3d4:	0901                	addi	s2,s2,0
 3d6:	0020                	addi	s0,sp,8
 3d8:	0001                	nop
 3da:	0402                	c.slli64	s0
 3dc:	0601                	addi	a2,a2,0
 3de:	20090003          	lb	zero,512(s2) # b200 <__global_pointer$-0xfff4e00>
 3e2:	0100                	addi	s0,sp,128
 3e4:	0200                	addi	s0,sp,256
 3e6:	0204                	addi	s1,sp,256
 3e8:	08090003          	lb	zero,128(s2)
 3ec:	0100                	addi	s0,sp,128
 3ee:	0200                	addi	s0,sp,256
 3f0:	0404                	addi	s1,sp,512
 3f2:	04090003          	lb	zero,64(s2)
 3f6:	0100                	addi	s0,sp,128
 3f8:	0105                	addi	sp,sp,1
 3fa:	0200                	addi	s0,sp,256
 3fc:	0404                	addi	s1,sp,512
 3fe:	0306                	slli	t1,t1,0x1
 400:	0902                	c.slli64	s2
 402:	0018                	0x18
 404:	0501                	addi	a0,a0,0
 406:	0341                	addi	t1,t1,16
 408:	00140903          	lb	s2,1(s0) # ffffd001 <_etext+0xdfffbf9d>
 40c:	0501                	addi	a0,a0,0
 40e:	031c                	addi	a5,sp,384
 410:	0901                	addi	s2,s2,0
 412:	0018                	0x18
 414:	0501                	addi	a0,a0,0
 416:	0314                	addi	a3,sp,384
 418:	0900                	addi	s0,sp,144
 41a:	0004                	0x4
 41c:	0501                	addi	a0,a0,0
 41e:	0900032b          	0x900032b
 422:	0008                	0x8
 424:	0501                	addi	a0,a0,0
 426:	0324                	addi	s1,sp,392
 428:	0900                	addi	s0,sp,144
 42a:	0004                	0x4
 42c:	0501                	addi	a0,a0,0
 42e:	0301                	addi	t1,t1,0
 430:	0901                	addi	s2,s2,0
 432:	0004                	0x4
 434:	0501                	addi	a0,a0,0
 436:	0348                	addi	a0,sp,388
 438:	0902                	c.slli64	s2
 43a:	0010                	0x10
 43c:	0501                	addi	a0,a0,0
 43e:	030a                	slli	t1,t1,0x2
 440:	0901                	addi	s2,s2,0
 442:	0018                	0x18
 444:	0501                	addi	a0,a0,0
 446:	0346                	slli	t1,t1,0x11
 448:	0901                	addi	s2,s2,0
 44a:	002c                	addi	a1,sp,8
 44c:	0501                	addi	a0,a0,0
 44e:	0301                	addi	t1,t1,0
 450:	0901                	addi	s2,s2,0
 452:	000c                	0xc
 454:	0901                	addi	s2,s2,0
 456:	0014                	0x14
 458:	0100                	addi	s0,sp,128
 45a:	c701                	beqz	a4,462 <__global_pointer$-0xffffb9e>
 45c:	0001                	nop
 45e:	0300                	addi	s0,sp,384
 460:	0700                	addi	s0,sp,896
 462:	0001                	nop
 464:	0100                	addi	s0,sp,128
 466:	fb01                	bnez	a4,376 <__global_pointer$-0xffffc8a>
 468:	0d0e                	slli	s10,s10,0x3
 46a:	0100                	addi	s0,sp,128
 46c:	0101                	addi	sp,sp,0
 46e:	0001                	nop
 470:	0000                	unimp
 472:	0001                	nop
 474:	0100                	addi	s0,sp,128
 476:	6d6f682f          	0x6d6f682f
 47a:	2f65                	jal	c32 <__global_pointer$-0xffff3ce>
 47c:	656d                	lui	a0,0x1b
 47e:	6c72                	flw	fs8,28(sp)
 480:	7469672f          	0x7469672f
 484:	7568                	flw	fa0,108(a0)
 486:	5f62                	lw	t5,56(sp)
 488:	6572                	flw	fa0,28(sp)
 48a:	6f70                	flw	fa2,92(a4)
 48c:	7a612f73          	csrrs	t5,0x7a6,sp
 490:	6461                	lui	s0,0x18
 492:	2d69                	jal	b2c <__global_pointer$-0xffff4d4>
 494:	2f6b6473          	csrrsi	s0,0x2f6,22
 498:	7362                	flw	ft6,56(sp)
 49a:	2f70                	fld	fa2,216(a4)
 49c:	65726f63          	bltu	tp,s7,afa <__global_pointer$-0xffff506>
 4a0:	2f00                	fld	fs0,24(a4)
 4a2:	6f74                	flw	fa3,92(a4)
 4a4:	2f736c6f          	jal	s8,36f9a <__global_pointer$-0xffc9066>
 4a8:	6972                	flw	fs2,28(sp)
 4aa:	2f766373          	csrrsi	t1,0x2f7,12
 4ae:	6972                	flw	fs2,28(sp)
 4b0:	33766373          	csrrsi	t1,mhpmevent23,12
 4b4:	2d32                	fld	fs10,264(sp)
 4b6:	6e75                	lui	t3,0x1d
 4b8:	776f6e6b          	0x776f6e6b
 4bc:	2d6e                	fld	fs10,216(sp)
 4be:	6c65                	lui	s8,0x19
 4c0:	2f66                	fld	ft10,88(sp)
 4c2:	2d737973          	csrrci	s2,0x2d7,6
 4c6:	6e69                	lui	t3,0x1a
 4c8:	64756c63          	bltu	a0,t2,b20 <__global_pointer$-0xffff4e0>
 4cc:	2f65                	jal	c84 <__global_pointer$-0xffff37c>
 4ce:	616d                	addi	sp,sp,240
 4d0:	6e696863          	bltu	s2,t1,bc0 <__global_pointer$-0xffff440>
 4d4:	0065                	c.nop	25
 4d6:	6f6f742f          	0x6f6f742f
 4da:	736c                	flw	fa1,100(a4)
 4dc:	7369722f          	0x7369722f
 4e0:	722f7663          	bgeu	t5,sp,c0c <__global_pointer$-0xffff3f4>
 4e4:	7369                	lui	t1,0xffffa
 4e6:	32337663          	bgeu	t1,gp,812 <__global_pointer$-0xffff7ee>
 4ea:	752d                	lui	a0,0xfffeb
 4ec:	6b6e                	flw	fs6,216(sp)
 4ee:	6f6e                	flw	ft10,216(sp)
 4f0:	652d6e77          	0x652d6e77
 4f4:	666c                	flw	fa1,76(a2)
 4f6:	7379732f          	0x7379732f
 4fa:	692d                	lui	s2,0xb
 4fc:	636e                	flw	ft6,216(sp)
 4fe:	756c                	flw	fa1,108(a0)
 500:	6564                	flw	fs1,76(a0)
 502:	7379732f          	0x7379732f
 506:	2f00                	fld	fs0,24(a4)
 508:	6f68                	flw	fa0,92(a4)
 50a:	656d                	lui	a0,0x1b
 50c:	72656d2f          	0x72656d2f
 510:	2f6c                	fld	fa1,216(a4)
 512:	68746967          	0x68746967
 516:	6275                	lui	tp,0x1d
 518:	725f 7065 736f      	0x736f7065725f
 51e:	617a612f          	0x617a612f
 522:	6964                	flw	fs1,84(a0)
 524:	732d                	lui	t1,0xfffeb
 526:	6b64                	flw	fs1,84(a4)
 528:	7073622f          	0x7073622f
 52c:	636e692f          	0x636e692f
 530:	756c                	flw	fa1,108(a0)
 532:	6564                	flw	fs1,76(a0)
 534:	0000                	unimp
 536:	7274                	flw	fa3,100(a2)
 538:	7061                	c.lui	zero,0xffff8
 53a:	632e                	flw	ft6,200(sp)
 53c:	0100                	addi	s0,sp,128
 53e:	0000                	unimp
 540:	645f 6665 7561      	0x75616665645f
 546:	746c                	flw	fa1,108(s0)
 548:	745f 7079 7365      	0x73657079745f
 54e:	682e                	flw	fa6,200(sp)
 550:	0200                	addi	s0,sp,256
 552:	0000                	unimp
 554:	735f 6474 6e69      	0x6e696474735f
 55a:	2e74                	fld	fa3,216(a2)
 55c:	0068                	addi	a0,sp,12
 55e:	74000003          	lb	zero,1856(zero) # 740 <__global_pointer$-0xffff8c0>
 562:	6172                	flw	ft2,28(sp)
 564:	2e70                	fld	fa2,216(a2)
 566:	0068                	addi	a0,sp,12
 568:	0004                	0x4
 56a:	0000                	unimp
 56c:	0105                	addi	sp,sp,1
 56e:	0500                	addi	s0,sp,640
 570:	1c02                	slli	s8,s8,0x20
 572:	0005                	c.nop	1
 574:	1720                	addi	s0,sp,936
 576:	1105                	addi	sp,sp,-31
 578:	10090203          	lb	tp,256(s2) # b100 <__global_pointer$-0xfff4f00>
 57c:	0100                	addi	s0,sp,128
 57e:	0905                	addi	s2,s2,1
 580:	14090103          	lb	sp,320(s2)
 584:	0100                	addi	s0,sp,128
 586:	0105                	addi	sp,sp,1
 588:	04090103          	lb	sp,64(s2)
 58c:	0100                	addi	s0,sp,128
 58e:	10090203          	lb	tp,256(s2)
 592:	0100                	addi	s0,sp,128
 594:	0705                	addi	a4,a4,1
 596:	0200                	addi	s0,sp,256
 598:	0104                	addi	s1,sp,128
 59a:	14090103          	lb	sp,320(s2)
 59e:	0100                	addi	s0,sp,128
 5a0:	0105                	addi	sp,sp,1
 5a2:	04090403          	lb	s0,64(s2)
 5a6:	0100                	addi	s0,sp,128
 5a8:	0f05                	addi	t5,t5,1
 5aa:	18090103          	lb	sp,384(s2)
 5ae:	0100                	addi	s0,sp,128
 5b0:	0b05                	addi	s6,s6,1
 5b2:	04090103          	lb	sp,64(s2)
 5b6:	0100                	addi	s0,sp,128
 5b8:	0f05                	addi	t5,t5,1
 5ba:	04090203          	lb	tp,64(s2)
 5be:	0100                	addi	s0,sp,128
 5c0:	1205                	addi	tp,tp,-31
 5c2:	08090403          	lb	s0,128(s2)
 5c6:	0100                	addi	s0,sp,128
 5c8:	0d05                	addi	s10,s10,1
 5ca:	10090003          	lb	zero,256(s2)
 5ce:	0100                	addi	s0,sp,128
 5d0:	0505                	addi	a0,a0,1
 5d2:	08090003          	lb	zero,128(s2)
 5d6:	0100                	addi	s0,sp,128
 5d8:	0e05                	addi	t3,t3,1
 5da:	04090103          	lb	sp,64(s2)
 5de:	0100                	addi	s0,sp,128
 5e0:	0605                	addi	a2,a2,1
 5e2:	0c090103          	lb	sp,192(s2)
 5e6:	0100                	addi	s0,sp,128
 5e8:	0405                	addi	s0,s0,1
 5ea:	0c090103          	lb	sp,192(s2)
 5ee:	0100                	addi	s0,sp,128
 5f0:	0b05                	addi	s6,s6,1
 5f2:	10090103          	lb	sp,256(s2)
 5f6:	0100                	addi	s0,sp,128
 5f8:	0405                	addi	s0,s0,1
 5fa:	0c090103          	lb	sp,192(s2)
 5fe:	0100                	addi	s0,sp,128
 600:	1405                	addi	s0,s0,-31
 602:	10090403          	lb	s0,256(s2)
 606:	0100                	addi	s0,sp,128
 608:	0305                	addi	t1,t1,1
 60a:	14090003          	lb	zero,320(s2)
 60e:	0100                	addi	s0,sp,128
 610:	0805                	addi	a6,a6,1
 612:	0c090203          	lb	tp,192(s2)
 616:	0100                	addi	s0,sp,128
 618:	0105                	addi	sp,sp,1
 61a:	04090103          	lb	sp,64(s2)
 61e:	0100                	addi	s0,sp,128
 620:	1409                	addi	s0,s0,-30
 622:	0000                	unimp
 624:	0101                	addi	sp,sp,0
 626:	0455                	addi	s0,s0,21
 628:	0000                	unimp
 62a:	01910003          	lb	zero,25(sp)
 62e:	0000                	unimp
 630:	0101                	addi	sp,sp,0
 632:	000d0efb          	0xd0efb
 636:	0101                	addi	sp,sp,0
 638:	0101                	addi	sp,sp,0
 63a:	0000                	unimp
 63c:	0100                	addi	s0,sp,128
 63e:	0000                	unimp
 640:	2f01                	jal	d50 <__global_pointer$-0xffff2b0>
 642:	6f68                	flw	fa0,92(a4)
 644:	656d                	lui	a0,0x1b
 646:	72656d2f          	0x72656d2f
 64a:	2f6c                	fld	fa1,216(a4)
 64c:	68746967          	0x68746967
 650:	6275                	lui	tp,0x1d
 652:	725f 7065 736f      	0x736f7065725f
 658:	617a612f          	0x617a612f
 65c:	6964                	flw	fs1,84(a0)
 65e:	732d                	lui	t1,0xfffeb
 660:	6b64                	flw	fs1,84(a4)
 662:	7073622f          	0x7073622f
 666:	62696c2f          	0x62696c2f
 66a:	2f00                	fld	fs0,24(a4)
 66c:	6f68                	flw	fa0,92(a4)
 66e:	656d                	lui	a0,0x1b
 670:	72656d2f          	0x72656d2f
 674:	2f6c                	fld	fa1,216(a4)
 676:	68746967          	0x68746967
 67a:	6275                	lui	tp,0x1d
 67c:	725f 7065 736f      	0x736f7065725f
 682:	617a612f          	0x617a612f
 686:	6964                	flw	fs1,84(a0)
 688:	732d                	lui	t1,0xfffeb
 68a:	6b64                	flw	fs1,84(a4)
 68c:	7073622f          	0x7073622f
 690:	6972642f          	0x6972642f
 694:	6576                	flw	fa0,92(sp)
 696:	7372                	flw	ft6,60(sp)
 698:	696c702f          	0x696c702f
 69c:	742f0063          	beq	t5,sp,ddc <__global_pointer$-0xffff224>
 6a0:	736c6f6f          	jal	t5,c6dd6 <__global_pointer$-0xff3922a>
 6a4:	7369722f          	0x7369722f
 6a8:	722f7663          	bgeu	t5,sp,dd4 <__global_pointer$-0xffff22c>
 6ac:	7369                	lui	t1,0xffffa
 6ae:	32337663          	bgeu	t1,gp,9da <__global_pointer$-0xffff626>
 6b2:	752d                	lui	a0,0xfffeb
 6b4:	6b6e                	flw	fs6,216(sp)
 6b6:	6f6e                	flw	ft10,216(sp)
 6b8:	652d6e77          	0x652d6e77
 6bc:	666c                	flw	fa1,76(a2)
 6be:	7379732f          	0x7379732f
 6c2:	692d                	lui	s2,0xb
 6c4:	636e                	flw	ft6,216(sp)
 6c6:	756c                	flw	fa1,108(a0)
 6c8:	6564                	flw	fs1,76(a0)
 6ca:	63616d2f          	0x63616d2f
 6ce:	6968                	flw	fa0,84(a0)
 6d0:	656e                	flw	fa0,216(sp)
 6d2:	2f00                	fld	fs0,24(a4)
 6d4:	6f74                	flw	fa3,92(a4)
 6d6:	2f736c6f          	jal	s8,371cc <__global_pointer$-0xffc8e34>
 6da:	6972                	flw	fs2,28(sp)
 6dc:	2f766373          	csrrsi	t1,0x2f7,12
 6e0:	6972                	flw	fs2,28(sp)
 6e2:	33766373          	csrrsi	t1,mhpmevent23,12
 6e6:	2d32                	fld	fs10,264(sp)
 6e8:	6e75                	lui	t3,0x1d
 6ea:	776f6e6b          	0x776f6e6b
 6ee:	2d6e                	fld	fs10,216(sp)
 6f0:	6c65                	lui	s8,0x19
 6f2:	2f66                	fld	ft10,88(sp)
 6f4:	2d737973          	csrrci	s2,0x2d7,6
 6f8:	6e69                	lui	t3,0x1a
 6fa:	64756c63          	bltu	a0,t2,d52 <__global_pointer$-0xffff2ae>
 6fe:	2f65                	jal	eb6 <__global_pointer$-0xffff14a>
 700:	00737973          	csrrci	s2,0x7,6
 704:	6d6f682f          	0x6d6f682f
 708:	2f65                	jal	ec0 <__global_pointer$-0xffff140>
 70a:	656d                	lui	a0,0x1b
 70c:	6c72                	flw	fs8,28(sp)
 70e:	7469672f          	0x7469672f
 712:	7568                	flw	fa0,108(a0)
 714:	5f62                	lw	t5,56(sp)
 716:	6572                	flw	fa0,28(sp)
 718:	6f70                	flw	fa2,92(a4)
 71a:	7a612f73          	csrrs	t5,0x7a6,sp
 71e:	6461                	lui	s0,0x18
 720:	2d69                	jal	dba <__global_pointer$-0xffff246>
 722:	2f6b6473          	csrrsi	s0,0x2f6,22
 726:	7362                	flw	ft6,56(sp)
 728:	2f70                	fld	fa2,216(a4)
 72a:	6e69                	lui	t3,0x1a
 72c:	64756c63          	bltu	a0,t2,d84 <__global_pointer$-0xffff27c>
 730:	0065                	c.nop	25
 732:	6f6f742f          	0x6f6f742f
 736:	736c                	flw	fa1,100(a4)
 738:	7369722f          	0x7369722f
 73c:	6c2f7663          	bgeu	t5,sp,e08 <__global_pointer$-0xffff1f8>
 740:	6269                	lui	tp,0x1a
 742:	6363672f          	0x6363672f
 746:	7369722f          	0x7369722f
 74a:	32337663          	bgeu	t1,gp,a76 <__global_pointer$-0xffff58a>
 74e:	752d                	lui	a0,0xfffeb
 750:	6b6e                	flw	fs6,216(sp)
 752:	6f6e                	flw	ft10,216(sp)
 754:	652d6e77          	0x652d6e77
 758:	666c                	flw	fa1,76(a2)
 75a:	322e392f          	0x322e392f
 75e:	302e                	fld	ft0,232(sp)
 760:	636e692f          	0x636e692f
 764:	756c                	flw	fa1,108(a0)
 766:	6564                	flw	fs1,76(a0)
 768:	0000                	unimp
 76a:	7475                	lui	s0,0xffffd
 76c:	6c69                	lui	s8,0x1a
 76e:	00682e73          	csrrs	t3,0x6,a6
 772:	0001                	nop
 774:	7000                	flw	fs0,32(s0)
 776:	696c                	flw	fa1,84(a0)
 778:	00632e63          	0x632e63
 77c:	0002                	c.slli64	zero
 77e:	5f00                	lw	s0,56(a4)
 780:	6564                	flw	fs1,76(a0)
 782:	6166                	flw	ft2,88(sp)
 784:	6c75                	lui	s8,0x1d
 786:	5f74                	lw	a3,124(a4)
 788:	7974                	flw	fa3,116(a0)
 78a:	6570                	flw	fa2,76(a0)
 78c:	00682e73          	csrrs	t3,0x6,a6
 790:	5f000003          	lb	zero,1520(zero) # 5f0 <__global_pointer$-0xffffa10>
 794:	69647473          	csrrci	s0,0x696,8
 798:	746e                	flw	fs0,248(sp)
 79a:	682e                	flw	fa6,200(sp)
 79c:	0400                	addi	s0,sp,512
 79e:	0000                	unimp
 7a0:	7274                	flw	fa3,100(a2)
 7a2:	7061                	c.lui	zero,0xffff8
 7a4:	682e                	flw	fa6,200(sp)
 7a6:	0500                	addi	s0,sp,640
 7a8:	0000                	unimp
 7aa:	64647473          	csrrci	s0,0x646,8
 7ae:	6665                	lui	a2,0x19
 7b0:	682e                	flw	fa6,200(sp)
 7b2:	0600                	addi	s0,sp,768
 7b4:	0000                	unimp
 7b6:	6c70                	flw	fa2,92(s0)
 7b8:	6369                	lui	t1,0x1a
 7ba:	682e                	flw	fa6,200(sp)
 7bc:	0500                	addi	s0,sp,640
 7be:	0000                	unimp
 7c0:	0500                	addi	s0,sp,640
 7c2:	0205002f          	0x205002f
 7c6:	062c                	addi	a1,sp,776
 7c8:	2000                	fld	fs0,0(s0)
 7ca:	05010d03          	lb	s10,80(sp)
 7ce:	0900033b          	0x900033b
 7d2:	0010                	0x10
 7d4:	0501                	addi	a0,a0,0
 7d6:	0301                	addi	t1,t1,0
 7d8:	0900                	addi	s0,sp,144
 7da:	000c                	0xc
 7dc:	0401                	addi	s0,s0,0
 7de:	0502                	c.slli64	a0
 7e0:	0339                	addi	t1,t1,14
 7e2:	0905                	addi	s2,s2,1
 7e4:	0010                	0x10
 7e6:	0501                	addi	a0,a0,0
 7e8:	031a                	slli	t1,t1,0x6
 7ea:	0901                	addi	s2,s2,0
 7ec:	0010                	0x10
 7ee:	0501                	addi	a0,a0,0
 7f0:	030d                	addi	t1,t1,3
 7f2:	0900                	addi	s0,sp,144
 7f4:	0008                	0x8
 7f6:	0501                	addi	a0,a0,0
 7f8:	09010323          	sb	a6,134(sp)
 7fc:	0004                	0x4
 7fe:	0501                	addi	a0,a0,0
 800:	0301                	addi	t1,t1,0
 802:	0901                	addi	s2,s2,0
 804:	0008                	0x8
 806:	0501                	addi	a0,a0,0
 808:	09020343          	fmadd.s	ft6,ft4,fa6,ft1,rne
 80c:	0010                	0x10
 80e:	0501                	addi	a0,a0,0
 810:	030d                	addi	t1,t1,3
 812:	0901                	addi	s2,s2,0
 814:	0010                	0x10
 816:	0501                	addi	a0,a0,0
 818:	032c                	addi	a1,sp,392
 81a:	0901                	addi	s2,s2,0
 81c:	0008                	0x8
 81e:	0501                	addi	a0,a0,0
 820:	09000323          	sb	a6,134(zero) # 86 <__global_pointer$-0xfffff7a>
 824:	000c                	0xc
 826:	0501                	addi	a0,a0,0
 828:	0301                	addi	t1,t1,0
 82a:	0901                	addi	s2,s2,0
 82c:	0004                	0x4
 82e:	0501                	addi	a0,a0,0
 830:	0336                	slli	t1,t1,0xd
 832:	0902                	c.slli64	s2
 834:	0010                	0x10
 836:	0501                	addi	a0,a0,0
 838:	0320                	addi	s0,sp,392
 83a:	0901                	addi	s2,s2,0
 83c:	0010                	0x10
 83e:	0501                	addi	a0,a0,0
 840:	0900030b          	0x900030b
 844:	0008                	0x8
 846:	0501                	addi	a0,a0,0
 848:	0319                	addi	t1,t1,6
 84a:	0901                	addi	s2,s2,0
 84c:	0004                	0x4
 84e:	0501                	addi	a0,a0,0
 850:	0301                	addi	t1,t1,0
 852:	0901                	addi	s2,s2,0
 854:	0008                	0x8
 856:	0501                	addi	a0,a0,0
 858:	0331                	addi	t1,t1,12
 85a:	0902                	c.slli64	s2
 85c:	0010                	0x10
 85e:	0501                	addi	a0,a0,0
 860:	030e                	slli	t1,t1,0x3
 862:	0901                	addi	s2,s2,0
 864:	0010                	0x10
 866:	0501                	addi	a0,a0,0
 868:	0301                	addi	t1,t1,0
 86a:	0901                	addi	s2,s2,0
 86c:	0010                	0x10
 86e:	0501                	addi	a0,a0,0
 870:	0342                	slli	t1,t1,0x10
 872:	0906                	slli	s2,s2,0x1
 874:	0010                	0x10
 876:	0501                	addi	a0,a0,0
 878:	0316                	slli	t1,t1,0x5
 87a:	0901                	addi	s2,s2,0
 87c:	0024                	addi	s1,sp,8
 87e:	0501                	addi	a0,a0,0
 880:	0311                	addi	t1,t1,4
 882:	0902                	c.slli64	s2
 884:	000c                	0xc
 886:	0501                	addi	a0,a0,0
 888:	0339                	addi	t1,t1,14
 88a:	0900                	addi	s0,sp,144
 88c:	000c                	0xc
 88e:	0501                	addi	a0,a0,0
 890:	0314                	addi	a3,sp,384
 892:	0901                	addi	s2,s2,0
 894:	0008                	0x8
 896:	0501                	addi	a0,a0,0
 898:	030a                	slli	t1,t1,0x2
 89a:	097e                	slli	s2,s2,0x1f
 89c:	000c                	0xc
 89e:	0501                	addi	a0,a0,0
 8a0:	0301                	addi	t1,t1,0
 8a2:	0904                	addi	s1,sp,144
 8a4:	0028                	addi	a0,sp,8
 8a6:	0501                	addi	a0,a0,0
 8a8:	0345                	addi	t1,t1,17
 8aa:	0902                	c.slli64	s2
 8ac:	0024                	addi	s1,sp,8
 8ae:	0501                	addi	a0,a0,0
 8b0:	0316                	slli	t1,t1,0x5
 8b2:	0901                	addi	s2,s2,0
 8b4:	0020                	addi	s0,sp,8
 8b6:	0501                	addi	a0,a0,0
 8b8:	0329                	addi	t1,t1,10
 8ba:	0902                	c.slli64	s2
 8bc:	000c                	0xc
 8be:	0501                	addi	a0,a0,0
 8c0:	0314                	addi	a3,sp,384
 8c2:	0901                	addi	s2,s2,0
 8c4:	0008                	0x8
 8c6:	0501                	addi	a0,a0,0
 8c8:	030a                	slli	t1,t1,0x2
 8ca:	097e                	slli	s2,s2,0x1f
 8cc:	000c                	0xc
 8ce:	0501                	addi	a0,a0,0
 8d0:	0301                	addi	t1,t1,0
 8d2:	0904                	addi	s1,sp,144
 8d4:	0028                	addi	a0,sp,8
 8d6:	0301                	addi	t1,t1,0
 8d8:	00240903          	lb	s2,2(s0) # ffffd002 <_etext+0xdfffbf9e>
 8dc:	0501                	addi	a0,a0,0
 8de:	030c                	addi	a1,sp,384
 8e0:	0901                	addi	s2,s2,0
 8e2:	000c                	0xc
 8e4:	0501                	addi	a0,a0,0
 8e6:	031a                	slli	t1,t1,0x6
 8e8:	0902                	c.slli64	s2
 8ea:	0004                	0x4
 8ec:	0501                	addi	a0,a0,0
 8ee:	0902030f          	0x902030f
 8f2:	000c                	0xc
 8f4:	0501                	addi	a0,a0,0
 8f6:	0309                	addi	t1,t1,2
 8f8:	0901                	addi	s2,s2,0
 8fa:	000c                	0xc
 8fc:	0501                	addi	a0,a0,0
 8fe:	0301                	addi	t1,t1,0
 900:	0901                	addi	s2,s2,0
 902:	0004                	0x4
 904:	0301                	addi	t1,t1,0
 906:	00100903          	lb	s2,1(zero) # 1 <__global_pointer$-0xfffffff>
 90a:	0501                	addi	a0,a0,0
 90c:	0312                	slli	t1,t1,0x4
 90e:	00180903          	lb	s2,1(a6)
 912:	0501                	addi	a0,a0,0
 914:	0902030b          	0x902030b
 918:	0008                	0x8
 91a:	0501                	addi	a0,a0,0
 91c:	0302                	c.slli64	t1
 91e:	0900                	addi	s0,sp,144
 920:	0014                	0x14
 922:	0301                	addi	t1,t1,0
 924:	0902                	c.slli64	s2
 926:	0008                	0x8
 928:	0501                	addi	a0,a0,0
 92a:	0301                	addi	t1,t1,0
 92c:	0901                	addi	s2,s2,0
 92e:	0008                	0x8
 930:	0501                	addi	a0,a0,0
 932:	0334                	addi	a3,sp,392
 934:	0902                	c.slli64	s2
 936:	0014                	0x14
 938:	0501                	addi	a0,a0,0
 93a:	0316                	slli	t1,t1,0x5
 93c:	0902                	c.slli64	s2
 93e:	0018                	0x18
 940:	0501                	addi	a0,a0,0
 942:	09010303          	lb	t1,144(sp)
 946:	0010                	0x10
 948:	0501                	addi	a0,a0,0
 94a:	0301                	addi	t1,t1,0
 94c:	0901                	addi	s2,s2,0
 94e:	0014                	0x14
 950:	0501                	addi	a0,a0,0
 952:	032d                	addi	t1,t1,11
 954:	0902                	c.slli64	s2
 956:	0014                	0x14
 958:	0501                	addi	a0,a0,0
 95a:	09010303          	lb	t1,144(sp)
 95e:	0014                	0x14
 960:	0501                	addi	a0,a0,0
 962:	0301                	addi	t1,t1,0
 964:	0902                	c.slli64	s2
 966:	0010                	0x10
 968:	0501                	addi	a0,a0,0
 96a:	032a                	slli	t1,t1,0xa
 96c:	0902                	c.slli64	s2
 96e:	0014                	0x14
 970:	0501                	addi	a0,a0,0
 972:	0319                	addi	t1,t1,6
 974:	0901                	addi	s2,s2,0
 976:	0014                	0x14
 978:	0501                	addi	a0,a0,0
 97a:	09010303          	lb	t1,144(sp)
 97e:	0014                	0x14
 980:	0501                	addi	a0,a0,0
 982:	0301                	addi	t1,t1,0
 984:	0902                	c.slli64	s2
 986:	0010                	0x10
 988:	0501                	addi	a0,a0,0
 98a:	032c                	addi	a1,sp,392
 98c:	0902                	c.slli64	s2
 98e:	0014                	0x14
 990:	0501                	addi	a0,a0,0
 992:	09010303          	lb	t1,144(sp)
 996:	0014                	0x14
 998:	0501                	addi	a0,a0,0
 99a:	0301                	addi	t1,t1,0
 99c:	0901                	addi	s2,s2,0
 99e:	0010                	0x10
 9a0:	0501                	addi	a0,a0,0
 9a2:	0349                	addi	t1,t1,18
 9a4:	00140903          	lb	s2,1(s0)
 9a8:	0501                	addi	a0,a0,0
 9aa:	031e                	slli	t1,t1,0x7
 9ac:	0902                	c.slli64	s2
 9ae:	0020                	addi	s0,sp,8
 9b0:	0501                	addi	a0,a0,0
 9b2:	0312                	slli	t1,t1,0x4
 9b4:	0902                	c.slli64	s2
 9b6:	001c                	0x1c
 9b8:	0501                	addi	a0,a0,0
 9ba:	0309                	addi	t1,t1,2
 9bc:	0901                	addi	s2,s2,0
 9be:	0014                	0x14
 9c0:	0501                	addi	a0,a0,0
 9c2:	032a                	slli	t1,t1,0xa
 9c4:	0901                	addi	s2,s2,0
 9c6:	0024                	addi	s1,sp,8
 9c8:	0501                	addi	a0,a0,0
 9ca:	09000303          	lb	t1,144(zero) # 90 <__global_pointer$-0xfffff70>
 9ce:	0004                	0x4
 9d0:	0501                	addi	a0,a0,0
 9d2:	0301                	addi	t1,t1,0
 9d4:	0901                	addi	s2,s2,0
 9d6:	0010                	0x10
 9d8:	0501                	addi	a0,a0,0
 9da:	0902033b          	0x902033b
 9de:	0014                	0x14
 9e0:	0501                	addi	a0,a0,0
 9e2:	0308                	addi	a0,sp,384
 9e4:	0902                	c.slli64	s2
 9e6:	0018                	0x18
 9e8:	0501                	addi	a0,a0,0
 9ea:	031e                	slli	t1,t1,0x7
 9ec:	0901                	addi	s2,s2,0
 9ee:	0004                	0x4
 9f0:	0501                	addi	a0,a0,0
 9f2:	0312                	slli	t1,t1,0x4
 9f4:	0902                	c.slli64	s2
 9f6:	0018                	0x18
 9f8:	0501                	addi	a0,a0,0
 9fa:	0309                	addi	t1,t1,2
 9fc:	0901                	addi	s2,s2,0
 9fe:	0014                	0x14
 a00:	0501                	addi	a0,a0,0
 a02:	032a                	slli	t1,t1,0xa
 a04:	0901                	addi	s2,s2,0
 a06:	001c                	0x1c
 a08:	0501                	addi	a0,a0,0
 a0a:	09000303          	lb	t1,144(zero) # 90 <__global_pointer$-0xfffff70>
 a0e:	0004                	0x4
 a10:	0501                	addi	a0,a0,0
 a12:	0301                	addi	t1,t1,0
 a14:	0902                	c.slli64	s2
 a16:	0010                	0x10
 a18:	0501                	addi	a0,a0,0
 a1a:	0902031b          	0x902031b
 a1e:	0014                	0x14
 a20:	0501                	addi	a0,a0,0
 a22:	0319                	addi	t1,t1,6
 a24:	0902                	c.slli64	s2
 a26:	0010                	0x10
 a28:	0501                	addi	a0,a0,0
 a2a:	030a                	slli	t1,t1,0x2
 a2c:	0901                	addi	s2,s2,0
 a2e:	0010                	0x10
 a30:	0501                	addi	a0,a0,0
 a32:	0301                	addi	t1,t1,0
 a34:	0902                	c.slli64	s2
 a36:	0004                	0x4
 a38:	0501                	addi	a0,a0,0
 a3a:	0336                	slli	t1,t1,0xd
 a3c:	0902                	c.slli64	s2
 a3e:	0014                	0x14
 a40:	0501                	addi	a0,a0,0
 a42:	09040303          	lb	t1,144(s0)
 a46:	0014                	0x14
 a48:	0501                	addi	a0,a0,0
 a4a:	0301                	addi	t1,t1,0
 a4c:	00100903          	lb	s2,1(zero) # 1 <__global_pointer$-0xfffffff>
 a50:	0301                	addi	t1,t1,0
 a52:	0905                	addi	s2,s2,1
 a54:	0014                	0x14
 a56:	0501                	addi	a0,a0,0
 a58:	0302                	c.slli64	t1
 a5a:	0901                	addi	s2,s2,0
 a5c:	0018                	0x18
 a5e:	0301                	addi	t1,t1,0
 a60:	0901                	addi	s2,s2,0
 a62:	0008                	0x8
 a64:	0301                	addi	t1,t1,0
 a66:	0901                	addi	s2,s2,0
 a68:	000c                	0xc
 a6a:	0301                	addi	t1,t1,0
 a6c:	0901                	addi	s2,s2,0
 a6e:	0014                	0x14
 a70:	0501                	addi	a0,a0,0
 a72:	0301                	addi	t1,t1,0
 a74:	0901                	addi	s2,s2,0
 a76:	0010                	0x10
 a78:	0901                	addi	s2,s2,0
 a7a:	0014                	0x14
 a7c:	0100                	addi	s0,sp,128
 a7e:	4801                	li	a6,0
 a80:	03000003          	lb	zero,48(zero) # 30 <__global_pointer$-0xfffffd0>
 a84:	4e00                	lw	s0,24(a2)
 a86:	0001                	nop
 a88:	0100                	addi	s0,sp,128
 a8a:	fb01                	bnez	a4,99a <__global_pointer$-0xffff666>
 a8c:	0d0e                	slli	s10,s10,0x3
 a8e:	0100                	addi	s0,sp,128
 a90:	0101                	addi	sp,sp,0
 a92:	0001                	nop
 a94:	0000                	unimp
 a96:	0001                	nop
 a98:	0100                	addi	s0,sp,128
 a9a:	6d6f682f          	0x6d6f682f
 a9e:	2f65                	jal	1256 <__global_pointer$-0xfffedaa>
 aa0:	656d                	lui	a0,0x1b
 aa2:	6c72                	flw	fs8,28(sp)
 aa4:	7469672f          	0x7469672f
 aa8:	7568                	flw	fa0,108(a0)
 aaa:	5f62                	lw	t5,56(sp)
 aac:	6572                	flw	fa0,28(sp)
 aae:	6f70                	flw	fa2,92(a4)
 ab0:	7a612f73          	csrrs	t5,0x7a6,sp
 ab4:	6461                	lui	s0,0x18
 ab6:	2d69                	jal	1150 <__global_pointer$-0xfffeeb0>
 ab8:	2f6b6473          	csrrsi	s0,0x2f6,22
 abc:	7362                	flw	ft6,56(sp)
 abe:	2f70                	fld	fa2,216(a4)
 ac0:	696c                	flw	fa1,84(a0)
 ac2:	0062                	c.slli	zero,0x18
 ac4:	6d6f682f          	0x6d6f682f
 ac8:	2f65                	jal	1280 <__global_pointer$-0xfffed80>
 aca:	656d                	lui	a0,0x1b
 acc:	6c72                	flw	fs8,28(sp)
 ace:	7469672f          	0x7469672f
 ad2:	7568                	flw	fa0,108(a0)
 ad4:	5f62                	lw	t5,56(sp)
 ad6:	6572                	flw	fa0,28(sp)
 ad8:	6f70                	flw	fa2,92(a4)
 ada:	7a612f73          	csrrs	t5,0x7a6,sp
 ade:	6461                	lui	s0,0x18
 ae0:	2d69                	jal	117a <__global_pointer$-0xfffee86>
 ae2:	2f6b6473          	csrrsi	s0,0x2f6,22
 ae6:	7362                	flw	ft6,56(sp)
 ae8:	2f70                	fld	fa2,216(a4)
 aea:	7264                	flw	fs1,100(a2)
 aec:	7669                	lui	a2,0xffffa
 aee:	7265                	lui	tp,0xffff9
 af0:	70672f73          	csrrs	t5,0x706,a4
 af4:	6f69                	lui	t5,0x1a
 af6:	2f00                	fld	fs0,24(a4)
 af8:	6f74                	flw	fa3,92(a4)
 afa:	2f736c6f          	jal	s8,375f0 <__global_pointer$-0xffc8a10>
 afe:	6972                	flw	fs2,28(sp)
 b00:	2f766373          	csrrsi	t1,0x2f7,12
 b04:	6972                	flw	fs2,28(sp)
 b06:	33766373          	csrrsi	t1,mhpmevent23,12
 b0a:	2d32                	fld	fs10,264(sp)
 b0c:	6e75                	lui	t3,0x1d
 b0e:	776f6e6b          	0x776f6e6b
 b12:	2d6e                	fld	fs10,216(sp)
 b14:	6c65                	lui	s8,0x19
 b16:	2f66                	fld	ft10,88(sp)
 b18:	2d737973          	csrrci	s2,0x2d7,6
 b1c:	6e69                	lui	t3,0x1a
 b1e:	64756c63          	bltu	a0,t2,1176 <__global_pointer$-0xfffee8a>
 b22:	2f65                	jal	12da <__global_pointer$-0xfffed26>
 b24:	616d                	addi	sp,sp,240
 b26:	6e696863          	bltu	s2,t1,1216 <__global_pointer$-0xfffedea>
 b2a:	0065                	c.nop	25
 b2c:	6f6f742f          	0x6f6f742f
 b30:	736c                	flw	fa1,100(a4)
 b32:	7369722f          	0x7369722f
 b36:	722f7663          	bgeu	t5,sp,1262 <__global_pointer$-0xfffed9e>
 b3a:	7369                	lui	t1,0xffffa
 b3c:	32337663          	bgeu	t1,gp,e68 <__global_pointer$-0xffff198>
 b40:	752d                	lui	a0,0xfffeb
 b42:	6b6e                	flw	fs6,216(sp)
 b44:	6f6e                	flw	ft10,216(sp)
 b46:	652d6e77          	0x652d6e77
 b4a:	666c                	flw	fa1,76(a2)
 b4c:	7379732f          	0x7379732f
 b50:	692d                	lui	s2,0xb
 b52:	636e                	flw	ft6,216(sp)
 b54:	756c                	flw	fa1,108(a0)
 b56:	6564                	flw	fs1,76(a0)
 b58:	7379732f          	0x7379732f
 b5c:	2f00                	fld	fs0,24(a4)
 b5e:	6f68                	flw	fa0,92(a4)
 b60:	656d                	lui	a0,0x1b
 b62:	72656d2f          	0x72656d2f
 b66:	2f6c                	fld	fa1,216(a4)
 b68:	68746967          	0x68746967
 b6c:	6275                	lui	tp,0x1d
 b6e:	725f 7065 736f      	0x736f7065725f
 b74:	617a612f          	0x617a612f
 b78:	6964                	flw	fs1,84(a0)
 b7a:	732d                	lui	t1,0xfffeb
 b7c:	6b64                	flw	fs1,84(a4)
 b7e:	7073622f          	0x7073622f
 b82:	636e692f          	0x636e692f
 b86:	756c                	flw	fa1,108(a0)
 b88:	6564                	flw	fs1,76(a0)
 b8a:	0000                	unimp
 b8c:	7475                	lui	s0,0xffffd
 b8e:	6c69                	lui	s8,0x1a
 b90:	00682e73          	csrrs	t3,0x6,a6
 b94:	0001                	nop
 b96:	6700                	flw	fs0,8(a4)
 b98:	6970                	flw	fa2,84(a0)
 b9a:	00632e6f          	jal	t3,32ba0 <__global_pointer$-0xffcd460>
 b9e:	0002                	c.slli64	zero
 ba0:	5f00                	lw	s0,56(a4)
 ba2:	6564                	flw	fs1,76(a0)
 ba4:	6166                	flw	ft2,88(sp)
 ba6:	6c75                	lui	s8,0x1d
 ba8:	5f74                	lw	a3,124(a4)
 baa:	7974                	flw	fa3,116(a0)
 bac:	6570                	flw	fa2,76(a0)
 bae:	00682e73          	csrrs	t3,0x6,a6
 bb2:	5f000003          	lb	zero,1520(zero) # 5f0 <__global_pointer$-0xffffa10>
 bb6:	69647473          	csrrci	s0,0x696,8
 bba:	746e                	flw	fs0,248(sp)
 bbc:	682e                	flw	fa6,200(sp)
 bbe:	0400                	addi	s0,sp,512
 bc0:	0000                	unimp
 bc2:	7274                	flw	fa3,100(a2)
 bc4:	7061                	c.lui	zero,0xffff8
 bc6:	682e                	flw	fa6,200(sp)
 bc8:	0500                	addi	s0,sp,640
 bca:	0000                	unimp
 bcc:	6c70                	flw	fa2,92(s0)
 bce:	6369                	lui	t1,0x1a
 bd0:	682e                	flw	fa6,200(sp)
 bd2:	0500                	addi	s0,sp,640
 bd4:	0000                	unimp
 bd6:	0500                	addi	s0,sp,640
 bd8:	0205002f          	0x205002f
 bdc:	0bec                	addi	a1,sp,476
 bde:	2000                	fld	fs0,0(s0)
 be0:	05010d03          	lb	s10,80(sp)
 be4:	0900033b          	0x900033b
 be8:	0010                	0x10
 bea:	0501                	addi	a0,a0,0
 bec:	0301                	addi	t1,t1,0
 bee:	0900                	addi	s0,sp,144
 bf0:	000c                	0xc
 bf2:	0401                	addi	s0,s0,0
 bf4:	0502                	c.slli64	a0
 bf6:	09060347          	fmsub.s	ft6,fa2,fa6,ft1,rne
 bfa:	0010                	0x10
 bfc:	0501                	addi	a0,a0,0
 bfe:	0319                	addi	t1,t1,6
 c00:	0901                	addi	s2,s2,0
 c02:	0020                	addi	s0,sp,8
 c04:	0501                	addi	a0,a0,0
 c06:	09020303          	lb	t1,144(tp) # 1d090 <__global_pointer$-0xffe2f70>
 c0a:	0014                	0x14
 c0c:	0001                	nop
 c0e:	0402                	c.slli64	s0
 c10:	0601                	addi	a2,a2,0
 c12:	08090003          	lb	zero,128(s2) # b080 <__global_pointer$-0xfff4f80>
 c16:	0100                	addi	s0,sp,128
 c18:	0200                	addi	s0,sp,256
 c1a:	0204                	addi	s1,sp,256
 c1c:	08090003          	lb	zero,128(s2)
 c20:	0100                	addi	s0,sp,128
 c22:	0200                	addi	s0,sp,256
 c24:	0404                	addi	s1,sp,512
 c26:	04090003          	lb	zero,64(s2)
 c2a:	0100                	addi	s0,sp,128
 c2c:	0105                	addi	sp,sp,1
 c2e:	0200                	addi	s0,sp,256
 c30:	0404                	addi	s1,sp,512
 c32:	0306                	slli	t1,t1,0x1
 c34:	0902                	c.slli64	s2
 c36:	0010                	0x10
 c38:	0501                	addi	a0,a0,0
 c3a:	0326                	slli	t1,t1,0x9
 c3c:	090d                	addi	s2,s2,3
 c3e:	0014                	0x14
 c40:	0501                	addi	a0,a0,0
 c42:	09010303          	lb	t1,144(sp)
 c46:	0014                	0x14
 c48:	0501                	addi	a0,a0,0
 c4a:	0301                	addi	t1,t1,0
 c4c:	0901                	addi	s2,s2,0
 c4e:	0010                	0x10
 c50:	0501                	addi	a0,a0,0
 c52:	0324                	addi	s1,sp,392
 c54:	0902                	c.slli64	s2
 c56:	0014                	0x14
 c58:	0501                	addi	a0,a0,0
 c5a:	09010303          	lb	t1,144(sp)
 c5e:	0014                	0x14
 c60:	0501                	addi	a0,a0,0
 c62:	0301                	addi	t1,t1,0
 c64:	0901                	addi	s2,s2,0
 c66:	0010                	0x10
 c68:	0501                	addi	a0,a0,0
 c6a:	0324                	addi	s1,sp,392
 c6c:	0902                	c.slli64	s2
 c6e:	0014                	0x14
 c70:	0501                	addi	a0,a0,0
 c72:	09010303          	lb	t1,144(sp)
 c76:	0014                	0x14
 c78:	0501                	addi	a0,a0,0
 c7a:	0301                	addi	t1,t1,0
 c7c:	0901                	addi	s2,s2,0
 c7e:	0010                	0x10
 c80:	0501                	addi	a0,a0,0
 c82:	0349                	addi	t1,t1,18
 c84:	0904                	addi	s1,sp,144
 c86:	0014                	0x14
 c88:	0501                	addi	a0,a0,0
 c8a:	0312                	slli	t1,t1,0x4
 c8c:	00200903          	lb	s2,2(zero) # 2 <__global_pointer$-0xffffffe>
 c90:	0301                	addi	t1,t1,0
 c92:	0901                	addi	s2,s2,0
 c94:	0014                	0x14
 c96:	0501                	addi	a0,a0,0
 c98:	0306                	slli	t1,t1,0x1
 c9a:	0901                	addi	s2,s2,0
 c9c:	0010                	0x10
 c9e:	0501                	addi	a0,a0,0
 ca0:	032a                	slli	t1,t1,0xa
 ca2:	0902                	c.slli64	s2
 ca4:	0008                	0x8
 ca6:	0501                	addi	a0,a0,0
 ca8:	0338                	addi	a4,sp,392
 caa:	0900                	addi	s0,sp,144
 cac:	0008                	0x8
 cae:	0501                	addi	a0,a0,0
 cb0:	0305                	addi	t1,t1,1
 cb2:	097f                	0x97f
 cb4:	0010                	0x10
 cb6:	0501                	addi	a0,a0,0
 cb8:	0306                	slli	t1,t1,0x1
 cba:	00140903          	lb	s2,1(s0) # ffffd001 <_etext+0xdfffbf9d>
 cbe:	0501                	addi	a0,a0,0
 cc0:	0340                	addi	s0,sp,388
 cc2:	0902                	c.slli64	s2
 cc4:	0008                	0x8
 cc6:	0501                	addi	a0,a0,0
 cc8:	0305                	addi	t1,t1,1
 cca:	097f                	0x97f
 ccc:	0008                	0x8
 cce:	0501                	addi	a0,a0,0
 cd0:	0301                	addi	t1,t1,0
 cd2:	00180903          	lb	s2,1(a6)
 cd6:	0501                	addi	a0,a0,0
 cd8:	0329                	addi	t1,t1,10
 cda:	0902                	c.slli64	s2
 cdc:	0014                	0x14
 cde:	0501                	addi	a0,a0,0
 ce0:	032e                	slli	t1,t1,0xb
 ce2:	0901                	addi	s2,s2,0
 ce4:	0018                	0x18
 ce6:	0501                	addi	a0,a0,0
 ce8:	031c                	addi	a5,sp,384
 cea:	0900                	addi	s0,sp,144
 cec:	0018                	0x18
 cee:	0501                	addi	a0,a0,0
 cf0:	09010303          	lb	t1,144(sp)
 cf4:	000c                	0xc
 cf6:	0501                	addi	a0,a0,0
 cf8:	0301                	addi	t1,t1,0
 cfa:	0902                	c.slli64	s2
 cfc:	0018                	0x18
 cfe:	0501                	addi	a0,a0,0
 d00:	032a                	slli	t1,t1,0xa
 d02:	0902                	c.slli64	s2
 d04:	0014                	0x14
 d06:	0501                	addi	a0,a0,0
 d08:	0305                	addi	t1,t1,1
 d0a:	0901                	addi	s2,s2,0
 d0c:	0018                	0x18
 d0e:	0501                	addi	a0,a0,0
 d10:	0301                	addi	t1,t1,0
 d12:	0901                	addi	s2,s2,0
 d14:	0020                	addi	s0,sp,8
 d16:	0501                	addi	a0,a0,0
 d18:	0902032b          	0x902032b
 d1c:	0014                	0x14
 d1e:	0501                	addi	a0,a0,0
 d20:	09010303          	lb	t1,144(sp)
 d24:	0014                	0x14
 d26:	0501                	addi	a0,a0,0
 d28:	0301                	addi	t1,t1,0
 d2a:	0901                	addi	s2,s2,0
 d2c:	0010                	0x10
 d2e:	0501                	addi	a0,a0,0
 d30:	0319                	addi	t1,t1,6
 d32:	00140903          	lb	s2,1(s0)
 d36:	0501                	addi	a0,a0,0
 d38:	030a                	slli	t1,t1,0x2
 d3a:	0901                	addi	s2,s2,0
 d3c:	0010                	0x10
 d3e:	0501                	addi	a0,a0,0
 d40:	0301                	addi	t1,t1,0
 d42:	0901                	addi	s2,s2,0
 d44:	0010                	0x10
 d46:	0501                	addi	a0,a0,0
 d48:	0320                	addi	s0,sp,392
 d4a:	0902                	c.slli64	s2
 d4c:	0014                	0x14
 d4e:	0501                	addi	a0,a0,0
 d50:	0314                	addi	a3,sp,384
 d52:	00140903          	lb	s2,1(s0)
 d56:	0501                	addi	a0,a0,0
 d58:	09010303          	lb	t1,144(sp)
 d5c:	0010                	0x10
 d5e:	0501                	addi	a0,a0,0
 d60:	0302                	c.slli64	t1
 d62:	0905                	addi	s2,s2,1
 d64:	0008                	0x8
 d66:	0501                	addi	a0,a0,0
 d68:	0310                	addi	a2,sp,384
 d6a:	0904                	addi	s1,sp,144
 d6c:	0008                	0x8
 d6e:	0501                	addi	a0,a0,0
 d70:	0301                	addi	t1,t1,0
 d72:	0901                	addi	s2,s2,0
 d74:	000c                	0xc
 d76:	0501                	addi	a0,a0,0
 d78:	0328                	addi	a0,sp,392
 d7a:	0902                	c.slli64	s2
 d7c:	0014                	0x14
 d7e:	0501                	addi	a0,a0,0
 d80:	0305                	addi	t1,t1,1
 d82:	0901                	addi	s2,s2,0
 d84:	0014                	0x14
 d86:	0501                	addi	a0,a0,0
 d88:	0301                	addi	t1,t1,0
 d8a:	0901                	addi	s2,s2,0
 d8c:	0014                	0x14
 d8e:	0501                	addi	a0,a0,0
 d90:	0332                	slli	t1,t1,0xc
 d92:	0902                	c.slli64	s2
 d94:	0014                	0x14
 d96:	0501                	addi	a0,a0,0
 d98:	0305                	addi	t1,t1,1
 d9a:	0901                	addi	s2,s2,0
 d9c:	0014                	0x14
 d9e:	0501                	addi	a0,a0,0
 da0:	0301                	addi	t1,t1,0
 da2:	0901                	addi	s2,s2,0
 da4:	0010                	0x10
 da6:	0301                	addi	t1,t1,0
 da8:	0906                	slli	s2,s2,0x1
 daa:	0014                	0x14
 dac:	0501                	addi	a0,a0,0
 dae:	09010303          	lb	t1,144(sp)
 db2:	0018                	0x18
 db4:	0501                	addi	a0,a0,0
 db6:	0302                	c.slli64	t1
 db8:	0901                	addi	s2,s2,0
 dba:	0008                	0x8
 dbc:	0501                	addi	a0,a0,0
 dbe:	0301                	addi	t1,t1,0
 dc0:	0901                	addi	s2,s2,0
 dc2:	0010                	0x10
 dc4:	0901                	addi	s2,s2,0
 dc6:	0014                	0x14
 dc8:	0100                	addi	s0,sp,128
 dca:	8301                	c.srli64	a4
 dcc:	0001                	nop
 dce:	0300                	addi	s0,sp,384
 dd0:	2100                	fld	fs0,0(a0)
 dd2:	0001                	nop
 dd4:	0100                	addi	s0,sp,128
 dd6:	fb01                	bnez	a4,ce6 <__global_pointer$-0xffff31a>
 dd8:	0d0e                	slli	s10,s10,0x3
 dda:	0100                	addi	s0,sp,128
 ddc:	0101                	addi	sp,sp,0
 dde:	0001                	nop
 de0:	0000                	unimp
 de2:	0001                	nop
 de4:	0100                	addi	s0,sp,128
 de6:	6d6f682f          	0x6d6f682f
 dea:	2f65                	jal	15a2 <__global_pointer$-0xfffea5e>
 dec:	656d                	lui	a0,0x1b
 dee:	6c72                	flw	fs8,28(sp)
 df0:	7469672f          	0x7469672f
 df4:	7568                	flw	fa0,108(a0)
 df6:	5f62                	lw	t5,56(sp)
 df8:	6572                	flw	fa0,28(sp)
 dfa:	6f70                	flw	fa2,92(a4)
 dfc:	7a612f73          	csrrs	t5,0x7a6,sp
 e00:	6461                	lui	s0,0x18
 e02:	2d69                	jal	149c <__global_pointer$-0xfffeb64>
 e04:	2f6b6473          	csrrsi	s0,0x2f6,22
 e08:	74666f73          	csrrsi	t5,0x746,12
 e0c:	65726177          	0x65726177
 e10:	6c702f73          	csrr	t5,0x6c7
 e14:	6369                	lui	t1,0x1a
 e16:	745f 7365 0074      	0x747365745f
 e1c:	6f6f742f          	0x6f6f742f
 e20:	736c                	flw	fa1,100(a4)
 e22:	7369722f          	0x7369722f
 e26:	722f7663          	bgeu	t5,sp,1552 <__global_pointer$-0xfffeaae>
 e2a:	7369                	lui	t1,0xffffa
 e2c:	32337663          	bgeu	t1,gp,1158 <__global_pointer$-0xfffeea8>
 e30:	752d                	lui	a0,0xfffeb
 e32:	6b6e                	flw	fs6,216(sp)
 e34:	6f6e                	flw	ft10,216(sp)
 e36:	652d6e77          	0x652d6e77
 e3a:	666c                	flw	fa1,76(a2)
 e3c:	7379732f          	0x7379732f
 e40:	692d                	lui	s2,0xb
 e42:	636e                	flw	ft6,216(sp)
 e44:	756c                	flw	fa1,108(a0)
 e46:	6564                	flw	fs1,76(a0)
 e48:	63616d2f          	0x63616d2f
 e4c:	6968                	flw	fa0,84(a0)
 e4e:	656e                	flw	fa0,216(sp)
 e50:	2f00                	fld	fs0,24(a4)
 e52:	6f74                	flw	fa3,92(a4)
 e54:	2f736c6f          	jal	s8,3794a <__global_pointer$-0xffc86b6>
 e58:	6972                	flw	fs2,28(sp)
 e5a:	2f766373          	csrrsi	t1,0x2f7,12
 e5e:	6972                	flw	fs2,28(sp)
 e60:	33766373          	csrrsi	t1,mhpmevent23,12
 e64:	2d32                	fld	fs10,264(sp)
 e66:	6e75                	lui	t3,0x1d
 e68:	776f6e6b          	0x776f6e6b
 e6c:	2d6e                	fld	fs10,216(sp)
 e6e:	6c65                	lui	s8,0x19
 e70:	2f66                	fld	ft10,88(sp)
 e72:	2d737973          	csrrci	s2,0x2d7,6
 e76:	6e69                	lui	t3,0x1a
 e78:	64756c63          	bltu	a0,t2,14d0 <__global_pointer$-0xfffeb30>
 e7c:	2f65                	jal	1634 <__global_pointer$-0xfffe9cc>
 e7e:	00737973          	csrrci	s2,0x7,6
 e82:	6d6f682f          	0x6d6f682f
 e86:	2f65                	jal	163e <__global_pointer$-0xfffe9c2>
 e88:	656d                	lui	a0,0x1b
 e8a:	6c72                	flw	fs8,28(sp)
 e8c:	7469672f          	0x7469672f
 e90:	7568                	flw	fa0,108(a0)
 e92:	5f62                	lw	t5,56(sp)
 e94:	6572                	flw	fa0,28(sp)
 e96:	6f70                	flw	fa2,92(a4)
 e98:	7a612f73          	csrrs	t5,0x7a6,sp
 e9c:	6461                	lui	s0,0x18
 e9e:	2d69                	jal	1538 <__global_pointer$-0xfffeac8>
 ea0:	2f6b6473          	csrrsi	s0,0x2f6,22
 ea4:	7362                	flw	ft6,56(sp)
 ea6:	2f70                	fld	fa2,216(a4)
 ea8:	6e69                	lui	t3,0x1a
 eaa:	64756c63          	bltu	a0,t2,1502 <__global_pointer$-0xfffeafe>
 eae:	0065                	c.nop	25
 eb0:	7000                	flw	fs0,32(s0)
 eb2:	696c                	flw	fa1,84(a0)
 eb4:	65745f63          	bge	s0,s7,1512 <__global_pointer$-0xfffeaee>
 eb8:	632e7473          	csrrci	s0,0x632,28
 ebc:	0100                	addi	s0,sp,128
 ebe:	0000                	unimp
 ec0:	645f 6665 7561      	0x75616665645f
 ec6:	746c                	flw	fa1,108(s0)
 ec8:	745f 7079 7365      	0x73657079745f
 ece:	682e                	flw	fa6,200(sp)
 ed0:	0200                	addi	s0,sp,256
 ed2:	0000                	unimp
 ed4:	735f 6474 6e69      	0x6e696474735f
 eda:	2e74                	fld	fa3,216(a2)
 edc:	0068                	addi	a0,sp,12
 ede:	74000003          	lb	zero,1856(zero) # 740 <__global_pointer$-0xffff8c0>
 ee2:	6172                	flw	ft2,28(sp)
 ee4:	2e70                	fld	fa2,216(a2)
 ee6:	0068                	addi	a0,sp,12
 ee8:	0004                	0x4
 eea:	7000                	flw	fs0,32(s0)
 eec:	696c                	flw	fa1,84(a0)
 eee:	00682e63          	0x682e63
 ef2:	0004                	0x4
 ef4:	0000                	unimp
 ef6:	0f05                	addi	t5,t5,1
 ef8:	0500                	addi	s0,sp,640
 efa:	0c02                	c.slli64	s8
 efc:	0010                	0x10
 efe:	0320                	addi	s0,sp,392
 f00:	0120                	addi	s0,sp,136
 f02:	0205                	addi	tp,tp,1
 f04:	0200                	addi	s0,sp,256
 f06:	0104                	addi	s1,sp,128
 f08:	10091203          	lh	tp,256(s2) # b100 <__global_pointer$-0xfff4f00>
 f0c:	0100                	addi	s0,sp,128
 f0e:	0200                	addi	s0,sp,256
 f10:	0104                	addi	s1,sp,128
 f12:	0c090203          	lb	tp,192(s2)
 f16:	0100                	addi	s0,sp,128
 f18:	0200                	addi	s0,sp,256
 f1a:	0104                	addi	s1,sp,128
 f1c:	0c090103          	lb	sp,192(s2)
 f20:	0100                	addi	s0,sp,128
 f22:	0200                	addi	s0,sp,256
 f24:	0104                	addi	s1,sp,128
 f26:	0c090103          	lb	sp,192(s2)
 f2a:	0100                	addi	s0,sp,128
 f2c:	0200                	addi	s0,sp,256
 f2e:	0104                	addi	s1,sp,128
 f30:	0c092703          	lw	a4,192(s2)
 f34:	0100                	addi	s0,sp,128
 f36:	0200                	addi	s0,sp,256
 f38:	0104                	addi	s1,sp,128
 f3a:	08090503          	lb	a0,128(s2)
 f3e:	0100                	addi	s0,sp,128
 f40:	0105                	addi	sp,sp,1
 f42:	0200                	addi	s0,sp,256
 f44:	0104                	addi	s1,sp,128
 f46:	0c094003          	lbu	zero,192(s2)
 f4a:	0100                	addi	s0,sp,128
 f4c:	0409                	addi	s0,s0,2
 f4e:	0000                	unimp
 f50:	0101                	addi	sp,sp,0

Disassembly of section .debug_str:

00000000 <.debug_str>:
   0:	20554e47          	fmsub.s	ft8,fa0,ft5,ft4,rmm
   4:	20373143          	fmadd.s	ft2,fa4,ft3,ft4,rup
   8:	2e39                	jal	326 <__global_pointer$-0xffffcda>
   a:	2e32                	fld	ft8,264(sp)
   c:	2030                	fld	fa2,64(s0)
   e:	6d2d                	lui	s10,0xb
  10:	7261                	lui	tp,0xffff8
  12:	723d6863          	bltu	s10,gp,742 <__global_pointer$-0xffff8be>
  16:	3376                	fld	ft6,376(sp)
  18:	6932                	flw	fs2,12(sp)
  1a:	666d                	lui	a2,0x1b
  1c:	2064                	fld	fs1,192(s0)
  1e:	6d2d                	lui	s10,0xb
  20:	6261                	lui	tp,0x18
  22:	3d69                	jal	fffffebc <_etext+0xdfffee58>
  24:	6c69                	lui	s8,0x1a
  26:	3370                	fld	fa2,224(a4)
  28:	6432                	flw	fs0,12(sp)
  2a:	2d20                	fld	fs0,88(a0)
  2c:	636d                	lui	t1,0x1b
  2e:	6f6d                	lui	t5,0x1b
  30:	6564                	flw	fs1,76(a0)
  32:	3d6c                	fld	fa1,248(a0)
  34:	656d                	lui	a0,0x1b
  36:	6164                	flw	fs1,68(a0)
  38:	796e                	flw	fs2,248(sp)
  3a:	2d20                	fld	fs0,88(a0)
  3c:	5f5f0067          	jr	1525(t5) # 1b5f5 <__global_pointer$-0xffe4a0b>
  40:	6975                	lui	s2,0x1d
  42:	746e                	flw	fs0,248(sp)
  44:	7470                	flw	fa2,108(s0)
  46:	5f72                	lw	t5,60(sp)
  48:	0074                	addi	a3,sp,12
  4a:	6564                	flw	fs1,76(a0)
  4c:	616c                	flw	fa1,68(a0)
  4e:	0079                	c.nop	30
  50:	6e75                	lui	t3,0x1d
  52:	6e676973          	csrrsi	s2,0x6e6,14
  56:	6465                	lui	s0,0x19
  58:	6320                	flw	fs0,64(a4)
  5a:	6168                	flw	fa0,68(a0)
  5c:	0072                	c.slli	zero,0x1c
  5e:	6d6f682f          	0x6d6f682f
  62:	2f65                	jal	81a <__global_pointer$-0xffff7e6>
  64:	656d                	lui	a0,0x1b
  66:	6c72                	flw	fs8,28(sp)
  68:	7469672f          	0x7469672f
  6c:	7568                	flw	fa0,108(a0)
  6e:	5f62                	lw	t5,56(sp)
  70:	6572                	flw	fa0,28(sp)
  72:	6f70                	flw	fa2,92(a4)
  74:	7a612f73          	csrrs	t5,0x7a6,sp
  78:	6461                	lui	s0,0x18
  7a:	2d69                	jal	714 <__global_pointer$-0xffff8ec>
  7c:	2f6b6473          	csrrsi	s0,0x2f6,22
  80:	7362                	flw	ft6,56(sp)
  82:	2f70                	fld	fa2,216(a4)
  84:	7264                	flw	fs1,100(a2)
  86:	7669                	lui	a2,0xffffa
  88:	7265                	lui	tp,0xffff9
  8a:	69742f73          	csrrs	t5,0x697,s0
  8e:	656d                	lui	a0,0x1b
  90:	2f72                	fld	ft10,280(sp)
  92:	6974                	flw	fa3,84(a0)
  94:	656d                	lui	a0,0x1b
  96:	2e72                	fld	ft8,280(sp)
  98:	68730063          	beq	t1,t2,718 <__global_pointer$-0xffff8e8>
  9c:	2074726f          	jal	tp,47aa2 <__global_pointer$-0xffb855e>
  a0:	6e75                	lui	t3,0x1d
  a2:	6e676973          	csrrsi	s2,0x6e6,14
  a6:	6465                	lui	s0,0x19
  a8:	6920                	flw	fs0,80(a0)
  aa:	746e                	flw	fs0,248(sp)
  ac:	6c00                	flw	fs0,24(s0)
  ae:	20676e6f          	jal	t3,762b4 <__global_pointer$-0xff89d4c>
  b2:	6f6c                	flw	fa1,92(a4)
  b4:	676e                	flw	fa4,216(sp)
  b6:	7520                	flw	fs0,104(a0)
  b8:	736e                	flw	ft6,248(sp)
  ba:	6769                	lui	a4,0x1a
  bc:	656e                	flw	fa0,216(sp)
  be:	2064                	fld	fs1,192(s0)
  c0:	6e69                	lui	t3,0x1a
  c2:	0074                	addi	a3,sp,12
  c4:	6f6c                	flw	fa1,92(a4)
  c6:	676e                	flw	fa4,216(sp)
  c8:	6c20                	flw	fs0,88(s0)
  ca:	20676e6f          	jal	t3,762d0 <__global_pointer$-0xff89d30>
  ce:	6e69                	lui	t3,0x1a
  d0:	0074                	addi	a3,sp,12
  d2:	726f6873          	csrrsi	a6,0x726,30
  d6:	2074                	fld	fa3,192(s0)
  d8:	6e69                	lui	t3,0x1a
  da:	0074                	addi	a3,sp,12
  dc:	6d6f682f          	0x6d6f682f
  e0:	2f65                	jal	898 <__global_pointer$-0xffff768>
  e2:	656d                	lui	a0,0x1b
  e4:	6c72                	flw	fs8,28(sp)
  e6:	7469672f          	0x7469672f
  ea:	7568                	flw	fa0,108(a0)
  ec:	5f62                	lw	t5,56(sp)
  ee:	6572                	flw	fa0,28(sp)
  f0:	6f70                	flw	fa2,92(a4)
  f2:	7a612f73          	csrrs	t5,0x7a6,sp
  f6:	6461                	lui	s0,0x18
  f8:	2d69                	jal	792 <__global_pointer$-0xffff86e>
  fa:	2f6b6473          	csrrsi	s0,0x2f6,22
  fe:	74666f73          	csrrsi	t5,0x746,12
 102:	65726177          	0x65726177
 106:	6c702f73          	csrr	t5,0x6c7
 10a:	6369                	lui	t1,0x1a
 10c:	745f 7365 0074      	0x747365745f
 112:	616d                	addi	sp,sp,240
 114:	745f6863          	bltu	t5,t0,864 <__global_pointer$-0xffff79c>
 118:	6d69                	lui	s10,0x1a
 11a:	7265                	lui	tp,0xffff9
 11c:	685f 6e61 6c64      	0x6c646e61685f
 122:	7265                	lui	tp,0xffff9
 124:	7400                	flw	fs0,40(s0)
 126:	6d69                	lui	s10,0x1a
 128:	5f65                	li	t5,-7
 12a:	00706d63          	bltu	zero,t2,144 <__global_pointer$-0xffffebc>
 12e:	6e69                	lui	t3,0x1a
 130:	5f74                	lw	a3,124(a4)
 132:	6469                	lui	s0,0x1a
 134:	2f00                	fld	fs0,24(a4)
 136:	6f68                	flw	fa0,92(a4)
 138:	656d                	lui	a0,0x1b
 13a:	72656d2f          	0x72656d2f
 13e:	2f6c                	fld	fa1,216(a4)
 140:	68746967          	0x68746967
 144:	6275                	lui	tp,0x1d
 146:	725f 7065 736f      	0x736f7065725f
 14c:	617a612f          	0x617a612f
 150:	6964                	flw	fs1,84(a0)
 152:	732d                	lui	t1,0xfffeb
 154:	6b64                	flw	fs1,84(a4)
 156:	7073622f          	0x7073622f
 15a:	6972642f          	0x6972642f
 15e:	6576                	flw	fa0,92(sp)
 160:	7372                	flw	ft6,60(sp)
 162:	6d77702f          	0x6d77702f
 166:	6d77702f          	0x6d77702f
 16a:	632e                	flw	ft6,200(sp)
 16c:	4400                	lw	s0,8(s0)
 16e:	7475                	lui	s0,0xffffd
 170:	5f79                	li	t5,-2
 172:	6c637943          	0x6c637943
 176:	0065                	c.nop	25
 178:	6e616863          	bltu	sp,t1,868 <__global_pointer$-0xffff798>
 17c:	656e                	flw	fa0,216(sp)
 17e:	006c                	addi	a1,sp,12
 180:	5750                	lw	a2,44(a4)
 182:	5f4d                	li	t5,-13
 184:	5544                	lw	s1,44(a0)
 186:	5954                	lw	a3,52(a0)
 188:	4c435943          	0x4c435943
 18c:	0045                	c.nop	17
 18e:	6962                	flw	fs2,24(sp)
 190:	6674                	flw	fa3,76(a2)
 192:	6569                	lui	a0,0x1a
 194:	646c                	flw	fa1,76(s0)
 196:	625f 7469 3233      	0x32337469625f
 19c:	775f 6972 6574      	0x65746972775f
 1a2:	6200                	flw	fs0,0(a2)
 1a4:	7469                	lui	s0,0xffffa
 1a6:	6966                	flw	fs2,88(sp)
 1a8:	6c65                	lui	s8,0x19
 1aa:	5f64                	lw	s1,124(a4)
 1ac:	6962                	flw	fs2,24(sp)
 1ae:	3374                	fld	fa3,224(a4)
 1b0:	5f32                	lw	t5,44(sp)
 1b2:	6f74                	flw	fa3,92(a4)
 1b4:	665f 6569 646c      	0x646c6569665f
 1ba:	62003233          	0x62003233
 1be:	7469                	lui	s0,0xffffa
 1c0:	6966                	flw	fs2,88(sp)
 1c2:	6c65                	lui	s8,0x19
 1c4:	5f64                	lw	s1,124(a4)
 1c6:	6966                	flw	fs2,88(sp)
 1c8:	6c65                	lui	s8,0x19
 1ca:	3364                	fld	fs1,224(a4)
 1cc:	5f32                	lw	t5,44(sp)
 1ce:	0074                	addi	a3,sp,12
 1d0:	6d6f682f          	0x6d6f682f
 1d4:	2f65                	jal	98c <__global_pointer$-0xffff674>
 1d6:	656d                	lui	a0,0x1b
 1d8:	6c72                	flw	fs8,28(sp)
 1da:	7469672f          	0x7469672f
 1de:	7568                	flw	fa0,108(a0)
 1e0:	5f62                	lw	t5,56(sp)
 1e2:	6572                	flw	fa0,28(sp)
 1e4:	6f70                	flw	fa2,92(a4)
 1e6:	7a612f73          	csrrs	t5,0x7a6,sp
 1ea:	6461                	lui	s0,0x18
 1ec:	2d69                	jal	886 <__global_pointer$-0xffff77a>
 1ee:	2f6b6473          	csrrsi	s0,0x2f6,22
 1f2:	7362                	flw	ft6,56(sp)
 1f4:	2f70                	fld	fa2,216(a4)
 1f6:	696c                	flw	fa1,84(a0)
 1f8:	2f62                	fld	ft10,24(sp)
 1fa:	7475                	lui	s0,0xffffd
 1fc:	6c69                	lui	s8,0x1a
 1fe:	00632e73          	csrrs	t3,0x6,t1
 202:	656d                	lui	a0,0x1b
 204:	5f6d                	li	t5,-5
 206:	6572                	flw	fa0,28(sp)
 208:	6461                	lui	s0,0x18
 20a:	62003233          	0x62003233
 20e:	7469                	lui	s0,0xffffa
 210:	6966                	flw	fs2,88(sp)
 212:	6c65                	lui	s8,0x19
 214:	5f64                	lw	s1,124(a4)
 216:	6962                	flw	fs2,24(sp)
 218:	3374                	fld	fa3,224(a4)
 21a:	5f32                	lw	t5,44(sp)
 21c:	6572                	flw	fa0,28(sp)
 21e:	6461                	lui	s0,0x18
 220:	5f00                	lw	s0,56(a4)
 222:	755f 6e69 3374      	0x33746e69755f
 228:	5f32                	lw	t5,44(sp)
 22a:	0074                	addi	a3,sp,12
 22c:	7470                	flw	fa2,108(s0)
 22e:	6472                	flw	fs0,28(sp)
 230:	6669                	lui	a2,0x1a
 232:	5f66                	lw	t5,120(sp)
 234:	0074                	addi	a3,sp,12
 236:	6162                	flw	ft2,24(sp)
 238:	62006573          	csrrsi	a0,0x620,0
 23c:	7469                	lui	s0,0xffffa
 23e:	6966                	flw	fs2,88(sp)
 240:	6c65                	lui	s8,0x19
 242:	5f64                	lw	s1,124(a4)
 244:	6966                	flw	fs2,88(sp)
 246:	6c65                	lui	s8,0x19
 248:	3364                	fld	fs1,224(a4)
 24a:	0032                	c.slli	zero,0xc
 24c:	6176                	flw	ft2,92(sp)
 24e:	756c                	flw	fa1,108(a0)
 250:	0065                	c.nop	25
 252:	6962                	flw	fs2,24(sp)
 254:	6674                	flw	fa3,76(a2)
 256:	6569                	lui	a0,0x1a
 258:	646c                	flw	fa1,76(s0)
 25a:	665f 6569 646c      	0x646c6569665f
 260:	775f3233          	0x775f3233
 264:	6972                	flw	fs2,28(sp)
 266:	6574                	flw	fa3,76(a0)
 268:	6200                	flw	fs0,0(a2)
 26a:	7469                	lui	s0,0xffffa
 26c:	6966                	flw	fs2,88(sp)
 26e:	6c65                	lui	s8,0x19
 270:	5f64                	lw	s1,124(a4)
 272:	6966                	flw	fs2,88(sp)
 274:	6c65                	lui	s8,0x19
 276:	3364                	fld	fs1,224(a4)
 278:	5f32                	lw	t5,44(sp)
 27a:	6572                	flw	fa0,28(sp)
 27c:	6461                	lui	s0,0x18
 27e:	6900                	flw	fs0,16(a0)
 280:	646e                	flw	fs0,216(sp)
 282:	7865                	lui	a6,0xffff9
 284:	745f 5f6f 616d      	0x616d5f6f745f
 28a:	6c006b73          	csrrsi	s6,0x6c0,0
 28e:	20676e6f          	jal	t3,76494 <__global_pointer$-0xff89b6c>
 292:	6f64                	flw	fs1,92(a4)
 294:	6275                	lui	tp,0x1d
 296:	656c                	flw	fa1,76(a0)
 298:	6d00                	flw	fs0,24(a0)
 29a:	6d65                	lui	s10,0x19
 29c:	775f 6972 6574      	0x65746972775f
 2a2:	62003233          	0x62003233
 2a6:	7469                	lui	s0,0xffffa
 2a8:	6966                	flw	fs2,88(sp)
 2aa:	6c65                	lui	s8,0x19
 2ac:	0064                	addi	s1,sp,12
 2ae:	425f 6f6f 006c      	0x6c6f6f425f
 2b4:	7865                	lui	a6,0xffff9
 2b6:	7274                	flw	fa3,100(a2)
 2b8:	6361                	lui	t1,0x18
 2ba:	5f74                	lw	a3,124(a4)
 2bc:	6569                	lui	a0,0x1a
 2be:	635f 646f 0065      	0x65646f635f
 2c4:	66696873          	csrrsi	a6,0x666,18
 2c8:	5f74                	lw	a3,124(a4)
 2ca:	656c                	flw	fa1,76(a0)
 2cc:	676e                	flw	fa4,216(sp)
 2ce:	6874                	flw	fa3,84(s0)
 2d0:	6800                	flw	fs0,16(s0)
 2d2:	6e61                	lui	t3,0x18
 2d4:	6c64                	flw	fs1,92(s0)
 2d6:	5f65                	li	t5,-7
 2d8:	7274                	flw	fa3,100(a2)
 2da:	7061                	c.lui	zero,0xffff8
 2dc:	6d00                	flw	fs0,24(a0)
 2de:	73756163          	bltu	a0,s7,a00 <__global_pointer$-0xffff600>
 2e2:	0065                	c.nop	25
 2e4:	616d                	addi	sp,sp,240
 2e6:	705f6863          	bltu	t5,t0,9f6 <__global_pointer$-0xffff60a>
 2ea:	696c                	flw	fa1,84(a0)
 2ec:	61685f63          	bge	a6,s6,90a <__global_pointer$-0xffff6f6>
 2f0:	646e                	flw	fs0,216(sp)
 2f2:	656c                	flw	fa1,76(a0)
 2f4:	0072                	c.slli	zero,0x1c
 2f6:	636d                	lui	t1,0x1b
 2f8:	7561                	lui	a0,0xffff8
 2fa:	745f6573          	csrrsi	a0,0x745,30
 2fe:	6172                	flw	ft2,28(sp)
 300:	5f70                	lw	a2,124(a4)
 302:	6174                	flw	fa3,68(a0)
 304:	6c62                	flw	fs8,24(sp)
 306:	0065                	c.nop	25
 308:	7865                	lui	a6,0xffff9
 30a:	74706563          	bltu	zero,t2,a54 <__global_pointer$-0xffff5ac>
 30e:	6f69                	lui	t5,0x1a
 310:	5f6e                	lw	t5,248(sp)
 312:	65646f63          	bltu	s0,s6,970 <__global_pointer$-0xffff690>
 316:	6d00                	flw	fs0,24(a0)
 318:	7274                	flw	fa3,100(a2)
 31a:	7061                	c.lui	zero,0xffff8
 31c:	665f 7470 5f72      	0x5f727470665f
 322:	0074                	addi	a3,sp,12
 324:	6564                	flw	fs1,76(a0)
 326:	6166                	flw	ft2,88(sp)
 328:	6c75                	lui	s8,0x1d
 32a:	5f74                	lw	a3,124(a4)
 32c:	6168                	flw	fa0,68(a0)
 32e:	646e                	flw	fs0,216(sp)
 330:	656c                	flw	fa1,76(a0)
 332:	0072                	c.slli	zero,0x1c
 334:	6d6f682f          	0x6d6f682f
 338:	2f65                	jal	af0 <__global_pointer$-0xffff510>
 33a:	656d                	lui	a0,0x1b
 33c:	6c72                	flw	fs8,28(sp)
 33e:	7469672f          	0x7469672f
 342:	7568                	flw	fa0,108(a0)
 344:	5f62                	lw	t5,56(sp)
 346:	6572                	flw	fa0,28(sp)
 348:	6f70                	flw	fa2,92(a4)
 34a:	7a612f73          	csrrs	t5,0x7a6,sp
 34e:	6461                	lui	s0,0x18
 350:	2d69                	jal	9ea <__global_pointer$-0xffff616>
 352:	2f6b6473          	csrrsi	s0,0x2f6,22
 356:	7362                	flw	ft6,56(sp)
 358:	2f70                	fld	fa2,216(a4)
 35a:	65726f63          	bltu	tp,s7,9b8 <__global_pointer$-0xffff648>
 35e:	6172742f          	0x6172742f
 362:	2e70                	fld	fa2,216(a2)
 364:	636d0063          	beq	s10,s6,984 <__global_pointer$-0xffff67c>
 368:	7561                	lui	a0,0xffff8
 36a:	695f6573          	csrrsi	a0,0x695,30
 36e:	746e                	flw	fs0,248(sp)
 370:	7265                	lui	tp,0xffff9
 372:	7572                	flw	fa0,60(sp)
 374:	7470                	flw	fa2,108(s0)
 376:	745f 6261 656c      	0x656c6261745f
 37c:	6900                	flw	fs0,16(a0)
 37e:	5f65                	li	t5,-7
 380:	6e65                	lui	t3,0x19
 382:	7274                	flw	fa3,100(a2)
 384:	0079                	c.nop	30
 386:	6c70                	flw	fa2,92(s0)
 388:	6369                	lui	t1,0x1a
 38a:	695f 7172 655f      	0x655f7172695f
 390:	616e                	flw	ft2,216(sp)
 392:	6c62                	flw	fs8,24(sp)
 394:	5f65                	li	t5,-7
 396:	6162                	flw	ft2,24(sp)
 398:	665f6573          	csrrsi	a0,0x665,30
 39c:	745f726f          	jal	tp,f82e0 <__global_pointer$-0xff07d20>
 3a0:	7261                	lui	tp,0xffff8
 3a2:	00746567          	0x746567
 3a6:	6172                	flw	ft2,28(sp)
 3a8:	676e                	flw	fa4,216(sp)
 3aa:	0065                	c.nop	25
 3ac:	74617473          	csrrci	s0,0x746,2
 3b0:	0065                	c.nop	25
 3b2:	6c70                	flw	fa2,92(s0)
 3b4:	6369                	lui	t1,0x1a
 3b6:	695f 7172 625f      	0x625f7172695f
 3bc:	7469                	lui	s0,0xffffa
 3be:	695f 646e 7865      	0x7865646e695f
 3c4:	7000                	flw	fs0,32(s0)
 3c6:	695f 0064 6c70      	0x6c700064695f
 3cc:	6369                	lui	t1,0x1a
 3ce:	695f 7172 735f      	0x735f7172695f
 3d4:	7465                	lui	s0,0xffff9
 3d6:	655f 616e 6c62      	0x6c62616e655f
 3dc:	6465                	lui	s0,0x19
 3de:	7000                	flw	fs0,32(s0)
 3e0:	696c                	flw	fa1,84(a0)
 3e2:	72705f63          	blez	t2,b20 <__global_pointer$-0xffff4e0>
 3e6:	6f69                	lui	t5,0x1a
 3e8:	6972                	flw	fs2,28(sp)
 3ea:	7974                	flw	fa3,116(a0)
 3ec:	725f 6765 6f5f      	0x6f5f6765725f
 3f2:	6666                	flw	fa2,88(sp)
 3f4:	00746573          	csrrsi	a0,0x7,8
 3f8:	6c70                	flw	fa2,92(s0)
 3fa:	6369                	lui	t1,0x1a
 3fc:	725f 6765 695f      	0x695f6765725f
 402:	666e                	flw	fa2,216(sp)
 404:	6c70006f          	j	12ca <__global_pointer$-0xfffed36>
 408:	6369                	lui	t1,0x1a
 40a:	695f 7172 745f      	0x745f7172695f
 410:	6972                	flw	fs2,28(sp)
 412:	72656767          	0x72656767
 416:	745f 7079 5f65      	0x5f657079745f
 41c:	6572                	flw	fa0,28(sp)
 41e:	6e695f67          	0x6e695f67
 422:	6f66                	flw	ft10,88(sp)
 424:	6900                	flw	fs0,16(a0)
 426:	746e                	flw	fs0,248(sp)
 428:	7265                	lui	tp,0xffff9
 42a:	7572                	flw	fa0,60(sp)
 42c:	7470                	flw	fa2,108(s0)
 42e:	635f 616c 6d69      	0x6d69616c635f
 434:	615f 6464 6572      	0x65726464615f
 43a:	69007373          	csrrci	t1,0x690,0
 43e:	745f7273          	csrrci	tp,0x745,30
 442:	6261                	lui	tp,0x18
 444:	656c                	flw	fa1,76(a0)
 446:	5f00                	lw	s0,56(a4)
 448:	755f 6e69 3874      	0x38746e69755f
 44e:	745f 6900 746e      	0x746e6900745f
 454:	7265                	lui	tp,0xffff9
 456:	7572                	flw	fa0,60(sp)
 458:	7470                	flw	fa2,108(s0)
 45a:	695f 0064 682f      	0x682f0064695f
 460:	2f656d6f          	jal	s10,56756 <__global_pointer$-0xffa98aa>
 464:	656d                	lui	a0,0x1b
 466:	6c72                	flw	fs8,28(sp)
 468:	7469672f          	0x7469672f
 46c:	7568                	flw	fa0,108(a0)
 46e:	5f62                	lw	t5,56(sp)
 470:	6572                	flw	fa0,28(sp)
 472:	6f70                	flw	fa2,92(a4)
 474:	7a612f73          	csrrs	t5,0x7a6,sp
 478:	6461                	lui	s0,0x18
 47a:	2d69                	jal	b14 <__global_pointer$-0xffff4ec>
 47c:	2f6b6473          	csrrsi	s0,0x2f6,22
 480:	7362                	flw	ft6,56(sp)
 482:	2f70                	fld	fa2,216(a4)
 484:	7264                	flw	fs1,100(a2)
 486:	7669                	lui	a2,0xffffa
 488:	7265                	lui	tp,0xffff9
 48a:	6c702f73          	csrr	t5,0x6c7
 48e:	6369                	lui	t1,0x1a
 490:	696c702f          	0x696c702f
 494:	00632e63          	0x632e63
 498:	6c70                	flw	fa2,92(s0)
 49a:	6369                	lui	t1,0x1a
 49c:	735f 7465 745f      	0x745f7465735f
 4a2:	6972                	flw	fs2,28(sp)
 4a4:	72656767          	0x72656767
 4a8:	745f 7079 0065      	0x657079745f
 4ae:	6c70                	flw	fa2,92(s0)
 4b0:	6369                	lui	t1,0x1a
 4b2:	655f 616e 6c62      	0x6c62616e655f
 4b8:	5f65                	li	t5,-7
 4ba:	6e69                	lui	t3,0x1a
 4bc:	6574                	flw	fa3,76(a0)
 4be:	7272                	flw	ft4,60(sp)
 4c0:	7075                	c.lui	zero,0xffffd
 4c2:	0074                	addi	a3,sp,12
 4c4:	6c70                	flw	fa2,92(s0)
 4c6:	6369                	lui	t1,0x1a
 4c8:	735f 7465 705f      	0x705f7465735f
 4ce:	6972                	flw	fs2,28(sp)
 4d0:	7469726f          	jal	tp,97c16 <__global_pointer$-0xff683ea>
 4d4:	0079                	c.nop	30
 4d6:	6c70                	flw	fa2,92(s0)
 4d8:	6369                	lui	t1,0x1a
 4da:	735f 7465 745f      	0x745f7465735f
 4e0:	7268                	flw	fa0,100(a2)
 4e2:	7365                	lui	t1,0xffff9
 4e4:	6f68                	flw	fa0,92(a4)
 4e6:	646c                	flw	fa1,76(s0)
 4e8:	7000                	flw	fs0,32(s0)
 4ea:	696c                	flw	fa1,84(a0)
 4ec:	6e695f63          	bge	s2,t1,bea <__global_pointer$-0xffff416>
 4f0:	7469                	lui	s0,0xffffa
 4f2:	6900                	flw	fs0,16(a0)
 4f4:	746e                	flw	fs0,248(sp)
 4f6:	7265                	lui	tp,0xffff9
 4f8:	7572                	flw	fa0,60(sp)
 4fa:	7470                	flw	fa2,108(s0)
 4fc:	635f 616c 6d69      	0x6d69616c635f
 502:	725f 7165 6575      	0x65757165725f
 508:	72007473          	csrrci	s0,0x720,0
 50c:	6765                	lui	a4,0x19
 50e:	7369                	lui	t1,0xffffa
 510:	6574                	flw	fa3,76(a0)
 512:	5f72                	lw	t5,60(sp)
 514:	6e69                	lui	t3,0x1a
 516:	6564                	flw	fs1,76(a0)
 518:	0078                	addi	a4,sp,12
 51a:	69616c63          	bltu	sp,s6,bb2 <__global_pointer$-0xffff44e>
 51e:	5f6d                	li	t5,-5
 520:	6164                	flw	fs1,68(a0)
 522:	6174                	flw	fa3,68(a0)
 524:	7000                	flw	fs0,32(s0)
 526:	696c                	flw	fa1,84(a0)
 528:	70665f63          	bge	a2,t1,c46 <__global_pointer$-0xffff3ba>
 52c:	7274                	flw	fa3,100(a2)
 52e:	745f 7000 696c      	0x696c7000745f
 534:	72695f63          	bge	s2,t1,c72 <__global_pointer$-0xffff38e>
 538:	5f71                	li	t5,-4
 53a:	706d6f63          	bltu	s10,t1,c58 <__global_pointer$-0xffff3a8>
 53e:	656c                	flw	fa1,76(a0)
 540:	6574                	flw	fa3,76(a0)
 542:	7000                	flw	fs0,32(s0)
 544:	696c                	flw	fa1,84(a0)
 546:	72695f63          	bge	s2,t1,c84 <__global_pointer$-0xffff37c>
 54a:	5f71                	li	t5,-4
 54c:	69616c63          	bltu	sp,s6,be4 <__global_pointer$-0xffff41c>
 550:	006d                	c.nop	27
 552:	6c70                	flw	fa2,92(s0)
 554:	6369                	lui	t1,0x1a
 556:	695f 7172 655f      	0x655f7172695f
 55c:	616e                	flw	ft2,216(sp)
 55e:	6c62                	flw	fs8,24(sp)
 560:	5f65                	li	t5,-7
 562:	6572                	flw	fa0,28(sp)
 564:	6e695f67          	0x6e695f67
 568:	6f66                	flw	ft10,88(sp)
 56a:	6600                	flw	fs0,8(a2)
 56c:	616c                	flw	fa1,68(a0)
 56e:	6c700067          	jr	1735(zero) # 0 <__global_pointer$-0x10000000>
 572:	6369                	lui	t1,0x1a
 574:	725f 6765 695f      	0x695f6765725f
 57a:	666e                	flw	fa2,216(sp)
 57c:	00745f6f          	jal	t5,45d82 <__global_pointer$-0xffba27e>
 580:	6c70                	flw	fa2,92(s0)
 582:	6369                	lui	t1,0x1a
 584:	6f5f 6666 6573      	0x657366666f5f
 58a:	5f74                	lw	a3,124(a4)
 58c:	7266                	flw	ft4,120(sp)
 58e:	725f6d6f          	jal	s10,f74b2 <__global_pointer$-0xff08b4e>
 592:	6765                	lui	a4,0x19
 594:	0030                	addi	a2,sp,8
 596:	6c70                	flw	fa2,92(s0)
 598:	6369                	lui	t1,0x1a
 59a:	695f 7172 735f      	0x735f7172695f
 5a0:	7465                	lui	s0,0xffff9
 5a2:	745f 6972 6767      	0x67676972745f
 5a8:	7265                	lui	tp,0xffff9
 5aa:	6300                	flw	fs0,0(a4)
 5ac:	6c706d6f          	jal	s10,7472 <__global_pointer$-0xfff8b8e>
 5b0:	7465                	lui	s0,0xffff9
 5b2:	5f65                	li	t5,-7
 5b4:	6164                	flw	fs1,68(a0)
 5b6:	6174                	flw	fa3,68(a0)
 5b8:	6700                	flw	fs0,8(a4)
 5ba:	6970                	flw	fa2,84(a0)
 5bc:	6e695f6f          	jal	t5,95ca2 <__global_pointer$-0xff6a35e>
 5c0:	7274                	flw	fa3,100(a2)
 5c2:	745f 7365 0074      	0x747365745f
 5c8:	6572                	flw	fa0,28(sp)
 5ca:	70755f67          	0x70755f67
 5ce:	6570                	flw	fa2,76(a0)
 5d0:	5f72                	lw	t5,60(sp)
 5d2:	7366666f          	jal	a2,66d08 <__global_pointer$-0xff992f8>
 5d6:	7465                	lui	s0,0xffff9
 5d8:	6700                	flw	fs0,8(a4)
 5da:	6970                	flw	fa2,84(a0)
 5dc:	69645f6f          	jal	t5,45c72 <__global_pointer$-0xffba38e>
 5e0:	6572                	flw	fa0,28(sp)
 5e2:	775f7463          	bgeu	t5,s5,d4a <__global_pointer$-0xffff2b6>
 5e6:	6972                	flw	fs2,28(sp)
 5e8:	6574                	flw	fa3,76(a0)
 5ea:	655f 616e 6c62      	0x6c62616e655f
 5f0:	0065                	c.nop	25
 5f2:	6964                	flw	fs1,84(a0)
 5f4:	61746967          	0x61746967
 5f8:	5f6c                	lw	a1,124(a4)
 5fa:	74697277          	0x74697277
 5fe:	0065                	c.nop	25
 600:	6572                	flw	fa0,28(sp)
 602:	6f6c5f67          	0x6f6c5f67
 606:	5f726577          	0x5f726577
 60a:	7366666f          	jal	a2,66d40 <__global_pointer$-0xff992c0>
 60e:	7465                	lui	s0,0xffff9
 610:	6d00                	flw	fs0,24(a0)
 612:	7361                	lui	t1,0xffff8
 614:	6f6c5f6b          	0x6f6c5f6b
 618:	5f726577          	0x5f726577
 61c:	6168                	flw	fa0,68(a0)
 61e:	666c                	flw	fa1,76(a2)
 620:	6700                	flw	fs0,8(a4)
 622:	6970                	flw	fa2,84(a0)
 624:	69645f6f          	jal	t5,45cba <__global_pointer$-0xffba346>
 628:	6572                	flw	fa0,28(sp)
 62a:	775f7463          	bgeu	t5,s5,d92 <__global_pointer$-0xffff26e>
 62e:	6972                	flw	fs2,28(sp)
 630:	6574                	flw	fa3,76(a0)
 632:	6700                	flw	fs0,8(a4)
 634:	6970                	flw	fa2,84(a0)
 636:	65725f6f          	jal	t5,2648c <__global_pointer$-0xffd9b74>
 63a:	6461                	lui	s0,0x18
 63c:	705f 6e69 6700      	0x67006e69705f
 642:	6970                	flw	fa2,84(a0)
 644:	6e695f6f          	jal	t5,95d2a <__global_pointer$-0xff6a2d6>
 648:	7274                	flw	fa3,100(a2)
 64a:	655f 616e 6c62      	0x6c62616e655f
 650:	0065                	c.nop	25
 652:	6f697067          	0x6f697067
 656:	645f 7269 6365      	0x63657269645f
 65c:	5f74                	lw	a3,124(a4)
 65e:	6962                	flw	fs2,24(sp)
 660:	5f74                	lw	a3,124(a4)
 662:	74697277          	0x74697277
 666:	0065                	c.nop	25
 668:	616d                	addi	sp,sp,240
 66a:	755f6b73          	csrrsi	s6,0x755,30
 66e:	7070                	flw	fa2,100(s0)
 670:	7265                	lui	tp,0xffff9
 672:	685f 6c61 0066      	0x666c61685f
 678:	6f697067          	0x6f697067
 67c:	645f 7269 6365      	0x63657269645f
 682:	5f74                	lw	a3,124(a4)
 684:	74697277          	0x74697277
 688:	5f65                	li	t5,-7
 68a:	6c61                	lui	s8,0x18
 68c:	5f6c                	lw	a1,124(a4)
 68e:	6e65                	lui	t3,0x19
 690:	6261                	lui	tp,0x18
 692:	656c                	flw	fa1,76(a0)
 694:	2f00                	fld	fs0,24(a4)
 696:	6f68                	flw	fa0,92(a4)
 698:	656d                	lui	a0,0x1b
 69a:	72656d2f          	0x72656d2f
 69e:	2f6c                	fld	fa1,216(a4)
 6a0:	68746967          	0x68746967
 6a4:	6275                	lui	tp,0x1d
 6a6:	725f 7065 736f      	0x736f7065725f
 6ac:	617a612f          	0x617a612f
 6b0:	6964                	flw	fs1,84(a0)
 6b2:	732d                	lui	t1,0xfffeb
 6b4:	6b64                	flw	fs1,84(a4)
 6b6:	7073622f          	0x7073622f
 6ba:	6972642f          	0x6972642f
 6be:	6576                	flw	fa0,92(sp)
 6c0:	7372                	flw	ft6,60(sp)
 6c2:	6970672f          	0x6970672f
 6c6:	70672f6f          	jal	t5,72dcc <__global_pointer$-0xff8d234>
 6ca:	6f69                	lui	t5,0x1a
 6cc:	632e                	flw	ft6,200(sp)
 6ce:	6700                	flw	fs0,8(a4)
 6d0:	6970                	flw	fa2,84(a0)
 6d2:	69645f6f          	jal	t5,45d68 <__global_pointer$-0xffba298>
 6d6:	6572                	flw	fa0,28(sp)
 6d8:	775f7463          	bgeu	t5,s5,e40 <__global_pointer$-0xffff1c0>
 6dc:	6972                	flw	fs2,28(sp)
 6de:	6574                	flw	fa3,76(a0)
 6e0:	615f 6c6c 6700      	0x67006c6c615f
 6e6:	6970                	flw	fa2,84(a0)
 6e8:	616d5f6f          	jal	t5,d5cfe <__global_pointer$-0xff2a302>
 6ec:	64656b73          	csrrsi	s6,0x646,10
 6f0:	625f 7469 775f      	0x775f7469625f
 6f6:	6972                	flw	fs2,28(sp)
 6f8:	6574                	flw	fa3,76(a0)
 6fa:	7300                	flw	fs0,32(a4)
 6fc:	6968                	flw	fa0,84(a0)
 6fe:	7466                	flw	fs0,120(sp)
 700:	6465                	lui	s0,0x19
 702:	6700                	flw	fs0,8(a4)
 704:	6970                	flw	fa2,84(a0)
 706:	616d5f6f          	jal	t5,d5d1c <__global_pointer$-0xff2a2e4>
 70a:	64656b73          	csrrsi	s6,0x646,10
 70e:	775f 6972 6574      	0x65746972775f
 714:	6700                	flw	fs0,8(a4)
 716:	6970                	flw	fa2,84(a0)
 718:	6e695f6f          	jal	t5,95dfe <__global_pointer$-0xff6a202>
 71c:	7274                	flw	fa3,100(a2)
 71e:	745f 7079 0065      	0x657079745f
 724:	6f697067          	0x6f697067
 728:	725f 6165 5f64      	0x5f646165725f
 72e:	6c61                	lui	s8,0x18
 730:	006c                	addi	a1,sp,12
 732:	6d6f682f          	0x6d6f682f
 736:	2f65                	jal	eee <__global_pointer$-0xffff112>
 738:	656d                	lui	a0,0x1b
 73a:	6c72                	flw	fs8,28(sp)
 73c:	7469672f          	0x7469672f
 740:	7568                	flw	fa0,108(a0)
 742:	5f62                	lw	t5,56(sp)
 744:	6572                	flw	fa0,28(sp)
 746:	6f70                	flw	fa2,92(a4)
 748:	7a612f73          	csrrs	t5,0x7a6,sp
 74c:	6461                	lui	s0,0x18
 74e:	2d69                	jal	de8 <__global_pointer$-0xffff218>
 750:	2f6b6473          	csrrsi	s0,0x2f6,22
 754:	74666f73          	csrrsi	t5,0x746,12
 758:	65726177          	0x65726177
 75c:	6c702f73          	csrr	t5,0x6c7
 760:	6369                	lui	t1,0x1a
 762:	745f 7365 2f74      	0x2f747365745f
 768:	6c70                	flw	fa2,92(s0)
 76a:	6369                	lui	t1,0x1a
 76c:	745f 7365 2e74      	0x2e747365745f
 772:	616d0063          	beq	s10,s6,d72 <__global_pointer$-0xffff28e>
 776:	6e69                	lui	t3,0x1a
 778:	00              	Address 0x0000000000000778 is out of bounds.


Disassembly of section .debug_frame:

00000000 <.debug_frame>:
   0:	000c                	0xc
   2:	0000                	unimp
   4:	ffff                	0xffff
   6:	ffff                	0xffff
   8:	0001                	nop
   a:	7c01                	lui	s8,0xfffe0
   c:	0d01                	addi	s10,s10,0
   e:	0002                	c.slli64	zero
  10:	0020                	addi	s0,sp,8
  12:	0000                	unimp
  14:	0000                	unimp
  16:	0000                	unimp
  18:	0144                	addi	s1,sp,132
  1a:	2000                	fld	fs0,0(s0)
  1c:	0050                	addi	a2,sp,4
  1e:	0000                	unimp
  20:	0e44                	addi	s1,sp,788
  22:	4420                	lw	s0,72(s0)
  24:	0188                	addi	a0,sp,192
  26:	0c44                	addi	s1,sp,532
  28:	0008                	0x8
  2a:	c87c                	sw	a5,84(s0)
  2c:	020c                	addi	a1,sp,256
  2e:	4420                	lw	s0,72(s0)
  30:	000e                	c.slli	zero,0x3
  32:	0000                	unimp
  34:	0020                	addi	s0,sp,8
  36:	0000                	unimp
  38:	0000                	unimp
  3a:	0000                	unimp
  3c:	0194                	addi	a3,sp,192
  3e:	2000                	fld	fs0,0(s0)
  40:	006c                	addi	a1,sp,12
  42:	0000                	unimp
  44:	0e44                	addi	s1,sp,788
  46:	4430                	lw	a2,72(s0)
  48:	0188                	addi	a0,sp,192
  4a:	0c44                	addi	s1,sp,532
  4c:	0008                	0x8
  4e:	5802                	lw	a6,32(sp)
  50:	0cc8                	addi	a0,sp,596
  52:	3002                	fld	ft0,32(sp)
  54:	0e44                	addi	s1,sp,788
  56:	0000                	unimp
  58:	000c                	0xc
  5a:	0000                	unimp
  5c:	ffff                	0xffff
  5e:	ffff                	0xffff
  60:	0001                	nop
  62:	7c01                	lui	s8,0xfffe0
  64:	0d01                	addi	s10,s10,0
  66:	0002                	c.slli64	zero
  68:	0020                	addi	s0,sp,8
  6a:	0000                	unimp
  6c:	0058                	addi	a4,sp,4
  6e:	0000                	unimp
  70:	0200                	addi	s0,sp,256
  72:	2000                	fld	fs0,0(s0)
  74:	009c                	addi	a5,sp,64
  76:	0000                	unimp
  78:	0e44                	addi	s1,sp,788
  7a:	4430                	lw	a2,72(s0)
  7c:	0188                	addi	a0,sp,192
  7e:	0c44                	addi	s1,sp,532
  80:	0008                	0x8
  82:	8802                	jr	a6
  84:	0cc8                	addi	a0,sp,596
  86:	3002                	fld	ft0,32(sp)
  88:	0e44                	addi	s1,sp,788
  8a:	0000                	unimp
  8c:	000c                	0xc
  8e:	0000                	unimp
  90:	ffff                	0xffff
  92:	ffff                	0xffff
  94:	0001                	nop
  96:	7c01                	lui	s8,0xfffe0
  98:	0d01                	addi	s10,s10,0
  9a:	0002                	c.slli64	zero
  9c:	0020                	addi	s0,sp,8
  9e:	0000                	unimp
  a0:	008c                	addi	a1,sp,64
  a2:	0000                	unimp
  a4:	029c                	addi	a5,sp,320
  a6:	2000                	fld	fs0,0(s0)
  a8:	002c                	addi	a1,sp,8
  aa:	0000                	unimp
  ac:	0e44                	addi	s1,sp,788
  ae:	4420                	lw	s0,72(s0)
  b0:	0188                	addi	a0,sp,192
  b2:	0c44                	addi	s1,sp,532
  b4:	0008                	0x8
  b6:	c858                	sw	a4,20(s0)
  b8:	020c                	addi	a1,sp,256
  ba:	4420                	lw	s0,72(s0)
  bc:	000e                	c.slli	zero,0x3
  be:	0000                	unimp
  c0:	0020                	addi	s0,sp,8
  c2:	0000                	unimp
  c4:	008c                	addi	a1,sp,64
  c6:	0000                	unimp
  c8:	02c8                	addi	a0,sp,324
  ca:	2000                	fld	fs0,0(s0)
  cc:	0044                	addi	s1,sp,4
  ce:	0000                	unimp
  d0:	0e44                	addi	s1,sp,788
  d2:	4420                	lw	s0,72(s0)
  d4:	0188                	addi	a0,sp,192
  d6:	0c44                	addi	s1,sp,532
  d8:	0008                	0x8
  da:	c870                	sw	a2,84(s0)
  dc:	020c                	addi	a1,sp,256
  de:	4420                	lw	s0,72(s0)
  e0:	000e                	c.slli	zero,0x3
  e2:	0000                	unimp
  e4:	0020                	addi	s0,sp,8
  e6:	0000                	unimp
  e8:	008c                	addi	a1,sp,64
  ea:	0000                	unimp
  ec:	030c                	addi	a1,sp,384
  ee:	2000                	fld	fs0,0(s0)
  f0:	0038                	addi	a4,sp,8
  f2:	0000                	unimp
  f4:	0e44                	addi	s1,sp,788
  f6:	4420                	lw	s0,72(s0)
  f8:	0188                	addi	a0,sp,192
  fa:	0c44                	addi	s1,sp,532
  fc:	0008                	0x8
  fe:	c864                	sw	s1,84(s0)
 100:	020c                	addi	a1,sp,256
 102:	4420                	lw	s0,72(s0)
 104:	000e                	c.slli	zero,0x3
 106:	0000                	unimp
 108:	0020                	addi	s0,sp,8
 10a:	0000                	unimp
 10c:	008c                	addi	a1,sp,64
 10e:	0000                	unimp
 110:	0344                	addi	s1,sp,388
 112:	2000                	fld	fs0,0(s0)
 114:	0054                	addi	a3,sp,4
 116:	0000                	unimp
 118:	0e44                	addi	s1,sp,788
 11a:	4430                	lw	a2,72(s0)
 11c:	0188                	addi	a0,sp,192
 11e:	0c44                	addi	s1,sp,532
 120:	0008                	0x8
 122:	4002                	0x4002
 124:	0cc8                	addi	a0,sp,596
 126:	3002                	fld	ft0,32(sp)
 128:	0e44                	addi	s1,sp,788
 12a:	0000                	unimp
 12c:	0020                	addi	s0,sp,8
 12e:	0000                	unimp
 130:	008c                	addi	a1,sp,64
 132:	0000                	unimp
 134:	0398                	addi	a4,sp,448
 136:	2000                	fld	fs0,0(s0)
 138:	006c                	addi	a1,sp,12
 13a:	0000                	unimp
 13c:	0e44                	addi	s1,sp,788
 13e:	4420                	lw	s0,72(s0)
 140:	0188                	addi	a0,sp,192
 142:	0c44                	addi	s1,sp,532
 144:	0008                	0x8
 146:	5802                	lw	a6,32(sp)
 148:	0cc8                	addi	a0,sp,596
 14a:	2002                	fld	ft0,0(sp)
 14c:	0e44                	addi	s1,sp,788
 14e:	0000                	unimp
 150:	0024                	addi	s1,sp,8
 152:	0000                	unimp
 154:	008c                	addi	a1,sp,64
 156:	0000                	unimp
 158:	0404                	addi	s1,sp,512
 15a:	2000                	fld	fs0,0(s0)
 15c:	0078                	addi	a4,sp,12
 15e:	0000                	unimp
 160:	0e44                	addi	s1,sp,788
 162:	4830                	lw	a2,80(s0)
 164:	0181                	addi	gp,gp,0
 166:	0288                	addi	a0,sp,320
 168:	0c44                	addi	s1,sp,532
 16a:	0008                	0x8
 16c:	5c02                	lw	s8,32(sp)
 16e:	44c1                	li	s1,16
 170:	0cc8                	addi	a0,sp,596
 172:	3002                	fld	ft0,32(sp)
 174:	0e44                	addi	s1,sp,788
 176:	0000                	unimp
 178:	0020                	addi	s0,sp,8
 17a:	0000                	unimp
 17c:	008c                	addi	a1,sp,64
 17e:	0000                	unimp
 180:	047c                	addi	a5,sp,524
 182:	2000                	fld	fs0,0(s0)
 184:	003c                	addi	a5,sp,8
 186:	0000                	unimp
 188:	0e44                	addi	s1,sp,788
 18a:	4420                	lw	s0,72(s0)
 18c:	0188                	addi	a0,sp,192
 18e:	0c44                	addi	s1,sp,532
 190:	0008                	0x8
 192:	c868                	sw	a0,84(s0)
 194:	020c                	addi	a1,sp,256
 196:	4420                	lw	s0,72(s0)
 198:	000e                	c.slli	zero,0x3
 19a:	0000                	unimp
 19c:	0024                	addi	s1,sp,8
 19e:	0000                	unimp
 1a0:	008c                	addi	a1,sp,64
 1a2:	0000                	unimp
 1a4:	04b8                	addi	a4,sp,584
 1a6:	2000                	fld	fs0,0(s0)
 1a8:	0064                	addi	s1,sp,12
 1aa:	0000                	unimp
 1ac:	0e44                	addi	s1,sp,788
 1ae:	4830                	lw	a2,80(s0)
 1b0:	0181                	addi	gp,gp,0
 1b2:	0288                	addi	a0,sp,320
 1b4:	0c44                	addi	s1,sp,532
 1b6:	0008                	0x8
 1b8:	4802                	lw	a6,0(sp)
 1ba:	44c1                	li	s1,16
 1bc:	0cc8                	addi	a0,sp,596
 1be:	3002                	fld	ft0,32(sp)
 1c0:	0e44                	addi	s1,sp,788
 1c2:	0000                	unimp
 1c4:	000c                	0xc
 1c6:	0000                	unimp
 1c8:	ffff                	0xffff
 1ca:	ffff                	0xffff
 1cc:	0001                	nop
 1ce:	7c01                	lui	s8,0xfffe0
 1d0:	0d01                	addi	s10,s10,0
 1d2:	0002                	c.slli64	zero
 1d4:	0020                	addi	s0,sp,8
 1d6:	0000                	unimp
 1d8:	01c4                	addi	s1,sp,196
 1da:	0000                	unimp
 1dc:	051c                	addi	a5,sp,640
 1de:	2000                	fld	fs0,0(s0)
 1e0:	0038                	addi	a4,sp,8
 1e2:	0000                	unimp
 1e4:	0e44                	addi	s1,sp,788
 1e6:	4430                	lw	a2,72(s0)
 1e8:	0188                	addi	a0,sp,192
 1ea:	0c44                	addi	s1,sp,532
 1ec:	0008                	0x8
 1ee:	c864                	sw	s1,84(s0)
 1f0:	020c                	addi	a1,sp,256
 1f2:	4430                	lw	a2,72(s0)
 1f4:	000e                	c.slli	zero,0x3
 1f6:	0000                	unimp
 1f8:	0018                	0x18
 1fa:	0000                	unimp
 1fc:	01c4                	addi	s1,sp,196
 1fe:	0000                	unimp
 200:	0554                	addi	a3,sp,644
 202:	2000                	fld	fs0,0(s0)
 204:	0018                	0x18
 206:	0000                	unimp
 208:	0e44                	addi	s1,sp,788
 20a:	4420                	lw	s0,72(s0)
 20c:	0188                	addi	a0,sp,192
 20e:	0c44                	addi	s1,sp,532
 210:	0008                	0x8
 212:	0000                	unimp
 214:	0024                	addi	s1,sp,8
 216:	0000                	unimp
 218:	01c4                	addi	s1,sp,196
 21a:	0000                	unimp
 21c:	056c                	addi	a1,sp,652
 21e:	2000                	fld	fs0,0(s0)
 220:	00c0                	addi	s0,sp,68
 222:	0000                	unimp
 224:	0e44                	addi	s1,sp,788
 226:	4830                	lw	a2,80(s0)
 228:	0181                	addi	gp,gp,0
 22a:	0288                	addi	a0,sp,320
 22c:	0c44                	addi	s1,sp,532
 22e:	0008                	0x8
 230:	a402                	fsd	ft0,8(sp)
 232:	44c1                	li	s1,16
 234:	0cc8                	addi	a0,sp,596
 236:	3002                	fld	ft0,32(sp)
 238:	0e44                	addi	s1,sp,788
 23a:	0000                	unimp
 23c:	000c                	0xc
 23e:	0000                	unimp
 240:	ffff                	0xffff
 242:	ffff                	0xffff
 244:	0001                	nop
 246:	7c01                	lui	s8,0xfffe0
 248:	0d01                	addi	s10,s10,0
 24a:	0002                	c.slli64	zero
 24c:	0020                	addi	s0,sp,8
 24e:	0000                	unimp
 250:	023c                	addi	a5,sp,264
 252:	0000                	unimp
 254:	062c                	addi	a1,sp,776
 256:	2000                	fld	fs0,0(s0)
 258:	002c                	addi	a1,sp,8
 25a:	0000                	unimp
 25c:	0e44                	addi	s1,sp,788
 25e:	4420                	lw	s0,72(s0)
 260:	0188                	addi	a0,sp,192
 262:	0c44                	addi	s1,sp,532
 264:	0008                	0x8
 266:	c858                	sw	a4,20(s0)
 268:	020c                	addi	a1,sp,256
 26a:	4420                	lw	s0,72(s0)
 26c:	000e                	c.slli	zero,0x3
 26e:	0000                	unimp
 270:	0020                	addi	s0,sp,8
 272:	0000                	unimp
 274:	023c                	addi	a5,sp,264
 276:	0000                	unimp
 278:	0658                	addi	a4,sp,772
 27a:	2000                	fld	fs0,0(s0)
 27c:	0034                	addi	a3,sp,8
 27e:	0000                	unimp
 280:	0e44                	addi	s1,sp,788
 282:	4430                	lw	a2,72(s0)
 284:	0188                	addi	a0,sp,192
 286:	0c44                	addi	s1,sp,532
 288:	0008                	0x8
 28a:	c860                	sw	s0,84(s0)
 28c:	020c                	addi	a1,sp,256
 28e:	4430                	lw	a2,72(s0)
 290:	000e                	c.slli	zero,0x3
 292:	0000                	unimp
 294:	0020                	addi	s0,sp,8
 296:	0000                	unimp
 298:	023c                	addi	a5,sp,264
 29a:	0000                	unimp
 29c:	068c                	addi	a1,sp,832
 29e:	2000                	fld	fs0,0(s0)
 2a0:	0038                	addi	a4,sp,8
 2a2:	0000                	unimp
 2a4:	0e44                	addi	s1,sp,788
 2a6:	4430                	lw	a2,72(s0)
 2a8:	0188                	addi	a0,sp,192
 2aa:	0c44                	addi	s1,sp,532
 2ac:	0008                	0x8
 2ae:	c864                	sw	s1,84(s0)
 2b0:	020c                	addi	a1,sp,256
 2b2:	4430                	lw	a2,72(s0)
 2b4:	000e                	c.slli	zero,0x3
 2b6:	0000                	unimp
 2b8:	0020                	addi	s0,sp,8
 2ba:	0000                	unimp
 2bc:	023c                	addi	a5,sp,264
 2be:	0000                	unimp
 2c0:	06c4                	addi	s1,sp,836
 2c2:	2000                	fld	fs0,0(s0)
 2c4:	0034                	addi	a3,sp,8
 2c6:	0000                	unimp
 2c8:	0e44                	addi	s1,sp,788
 2ca:	4430                	lw	a2,72(s0)
 2cc:	0188                	addi	a0,sp,192
 2ce:	0c44                	addi	s1,sp,532
 2d0:	0008                	0x8
 2d2:	c860                	sw	s0,84(s0)
 2d4:	020c                	addi	a1,sp,256
 2d6:	4430                	lw	a2,72(s0)
 2d8:	000e                	c.slli	zero,0x3
 2da:	0000                	unimp
 2dc:	0020                	addi	s0,sp,8
 2de:	0000                	unimp
 2e0:	023c                	addi	a5,sp,264
 2e2:	0000                	unimp
 2e4:	06f8                	addi	a4,sp,844
 2e6:	2000                	fld	fs0,0(s0)
 2e8:	0030                	addi	a2,sp,8
 2ea:	0000                	unimp
 2ec:	0e44                	addi	s1,sp,788
 2ee:	4420                	lw	s0,72(s0)
 2f0:	0188                	addi	a0,sp,192
 2f2:	0c44                	addi	s1,sp,532
 2f4:	0008                	0x8
 2f6:	c85c                	sw	a5,20(s0)
 2f8:	020c                	addi	a1,sp,256
 2fa:	4420                	lw	s0,72(s0)
 2fc:	000e                	c.slli	zero,0x3
 2fe:	0000                	unimp
 300:	0030                	addi	a2,sp,8
 302:	0000                	unimp
 304:	023c                	addi	a5,sp,264
 306:	0000                	unimp
 308:	0728                	addi	a0,sp,904
 30a:	2000                	fld	fs0,0(s0)
 30c:	009c                	addi	a5,sp,64
 30e:	0000                	unimp
 310:	0e44                	addi	s1,sp,788
 312:	5450                	lw	a2,44(s0)
 314:	0181                	addi	gp,gp,0
 316:	0288                	addi	a0,sp,320
 318:	0389                	addi	t2,t2,2
 31a:	0492                	slli	s1,s1,0x4
 31c:	0c440593          	addi	a1,s0,196 # 180c4 <__global_pointer$-0xffe7f3c>
 320:	0008                	0x8
 322:	6802                	flw	fa6,0(sp)
 324:	44c1                	li	s1,16
 326:	0cc8                	addi	a0,sp,596
 328:	5002                	0x5002
 32a:	c944                	sw	s1,20(a0)
 32c:	d244                	sw	s1,36(a2)
 32e:	d344                	sw	s1,36(a4)
 330:	0e44                	addi	s1,sp,788
 332:	0000                	unimp
 334:	0030                	addi	a2,sp,8
 336:	0000                	unimp
 338:	023c                	addi	a5,sp,264
 33a:	0000                	unimp
 33c:	07c4                	addi	s1,sp,964
 33e:	2000                	fld	fs0,0(s0)
 340:	008c                	addi	a1,sp,64
 342:	0000                	unimp
 344:	0e44                	addi	s1,sp,788
 346:	5450                	lw	a2,44(s0)
 348:	0181                	addi	gp,gp,0
 34a:	0288                	addi	a0,sp,320
 34c:	0389                	addi	t2,t2,2
 34e:	0492                	slli	s1,s1,0x4
 350:	0c440593          	addi	a1,s0,196
 354:	0008                	0x8
 356:	5802                	lw	a6,32(sp)
 358:	44c1                	li	s1,16
 35a:	0cc8                	addi	a0,sp,596
 35c:	5002                	0x5002
 35e:	c944                	sw	s1,20(a0)
 360:	d244                	sw	s1,36(a2)
 362:	d344                	sw	s1,36(a4)
 364:	0e44                	addi	s1,sp,788
 366:	0000                	unimp
 368:	0020                	addi	s0,sp,8
 36a:	0000                	unimp
 36c:	023c                	addi	a5,sp,264
 36e:	0000                	unimp
 370:	0850                	addi	a2,sp,20
 372:	2000                	fld	fs0,0(s0)
 374:	003c                	addi	a5,sp,8
 376:	0000                	unimp
 378:	0e44                	addi	s1,sp,788
 37a:	4420                	lw	s0,72(s0)
 37c:	0188                	addi	a0,sp,192
 37e:	0c44                	addi	s1,sp,532
 380:	0008                	0x8
 382:	c868                	sw	a0,84(s0)
 384:	020c                	addi	a1,sp,256
 386:	4420                	lw	s0,72(s0)
 388:	000e                	c.slli	zero,0x3
 38a:	0000                	unimp
 38c:	0024                	addi	s1,sp,8
 38e:	0000                	unimp
 390:	023c                	addi	a5,sp,264
 392:	0000                	unimp
 394:	088c                	addi	a1,sp,80
 396:	2000                	fld	fs0,0(s0)
 398:	0058                	addi	a4,sp,4
 39a:	0000                	unimp
 39c:	0e44                	addi	s1,sp,788
 39e:	4830                	lw	a2,80(s0)
 3a0:	0181                	addi	gp,gp,0
 3a2:	0288                	addi	a0,sp,320
 3a4:	0c44                	addi	s1,sp,532
 3a6:	0008                	0x8
 3a8:	3c02                	fld	fs8,32(sp)
 3aa:	44c1                	li	s1,16
 3ac:	0cc8                	addi	a0,sp,596
 3ae:	3002                	fld	ft0,32(sp)
 3b0:	0e44                	addi	s1,sp,788
 3b2:	0000                	unimp
 3b4:	0024                	addi	s1,sp,8
 3b6:	0000                	unimp
 3b8:	023c                	addi	a5,sp,264
 3ba:	0000                	unimp
 3bc:	08e4                	addi	s1,sp,92
 3be:	2000                	fld	fs0,0(s0)
 3c0:	0050                	addi	a2,sp,4
 3c2:	0000                	unimp
 3c4:	0e44                	addi	s1,sp,788
 3c6:	4830                	lw	a2,80(s0)
 3c8:	0181                	addi	gp,gp,0
 3ca:	0288                	addi	a0,sp,320
 3cc:	0c44                	addi	s1,sp,532
 3ce:	0008                	0x8
 3d0:	c174                	sw	a3,68(a0)
 3d2:	c844                	sw	s1,20(s0)
 3d4:	020c                	addi	a1,sp,256
 3d6:	4430                	lw	a2,72(s0)
 3d8:	000e                	c.slli	zero,0x3
 3da:	0000                	unimp
 3dc:	0024                	addi	s1,sp,8
 3de:	0000                	unimp
 3e0:	023c                	addi	a5,sp,264
 3e2:	0000                	unimp
 3e4:	0934                	addi	a3,sp,152
 3e6:	2000                	fld	fs0,0(s0)
 3e8:	0038                	addi	a4,sp,8
 3ea:	0000                	unimp
 3ec:	0e44                	addi	s1,sp,788
 3ee:	4820                	lw	s0,80(s0)
 3f0:	0181                	addi	gp,gp,0
 3f2:	0288                	addi	a0,sp,320
 3f4:	0c44                	addi	s1,sp,532
 3f6:	0008                	0x8
 3f8:	c15c                	sw	a5,4(a0)
 3fa:	c844                	sw	s1,20(s0)
 3fc:	020c                	addi	a1,sp,256
 3fe:	4420                	lw	s0,72(s0)
 400:	000e                	c.slli	zero,0x3
 402:	0000                	unimp
 404:	0024                	addi	s1,sp,8
 406:	0000                	unimp
 408:	023c                	addi	a5,sp,264
 40a:	0000                	unimp
 40c:	096c                	addi	a1,sp,156
 40e:	2000                	fld	fs0,0(s0)
 410:	004c                	addi	a1,sp,4
 412:	0000                	unimp
 414:	0e44                	addi	s1,sp,788
 416:	4830                	lw	a2,80(s0)
 418:	0181                	addi	gp,gp,0
 41a:	0288                	addi	a0,sp,320
 41c:	0c44                	addi	s1,sp,532
 41e:	0008                	0x8
 420:	c170                	sw	a2,68(a0)
 422:	c844                	sw	s1,20(s0)
 424:	020c                	addi	a1,sp,256
 426:	4430                	lw	a2,72(s0)
 428:	000e                	c.slli	zero,0x3
 42a:	0000                	unimp
 42c:	0024                	addi	s1,sp,8
 42e:	0000                	unimp
 430:	023c                	addi	a5,sp,264
 432:	0000                	unimp
 434:	09b8                	addi	a4,sp,216
 436:	2000                	fld	fs0,0(s0)
 438:	0038                	addi	a4,sp,8
 43a:	0000                	unimp
 43c:	0e44                	addi	s1,sp,788
 43e:	4820                	lw	s0,80(s0)
 440:	0181                	addi	gp,gp,0
 442:	0288                	addi	a0,sp,320
 444:	0c44                	addi	s1,sp,532
 446:	0008                	0x8
 448:	c15c                	sw	a5,4(a0)
 44a:	c844                	sw	s1,20(s0)
 44c:	020c                	addi	a1,sp,256
 44e:	4420                	lw	s0,72(s0)
 450:	000e                	c.slli	zero,0x3
 452:	0000                	unimp
 454:	0024                	addi	s1,sp,8
 456:	0000                	unimp
 458:	023c                	addi	a5,sp,264
 45a:	0000                	unimp
 45c:	09f0                	addi	a2,sp,220
 45e:	2000                	fld	fs0,0(s0)
 460:	009c                	addi	a5,sp,64
 462:	0000                	unimp
 464:	0e44                	addi	s1,sp,788
 466:	4830                	lw	a2,80(s0)
 468:	0181                	addi	gp,gp,0
 46a:	0288                	addi	a0,sp,320
 46c:	0c44                	addi	s1,sp,532
 46e:	0008                	0x8
 470:	8002                	0x8002
 472:	44c1                	li	s1,16
 474:	0cc8                	addi	a0,sp,596
 476:	3002                	fld	ft0,32(sp)
 478:	0e44                	addi	s1,sp,788
 47a:	0000                	unimp
 47c:	0024                	addi	s1,sp,8
 47e:	0000                	unimp
 480:	023c                	addi	a5,sp,264
 482:	0000                	unimp
 484:	0a8c                	addi	a1,sp,336
 486:	2000                	fld	fs0,0(s0)
 488:	008c                	addi	a1,sp,64
 48a:	0000                	unimp
 48c:	0e44                	addi	s1,sp,788
 48e:	4830                	lw	a2,80(s0)
 490:	0181                	addi	gp,gp,0
 492:	0288                	addi	a0,sp,320
 494:	0c44                	addi	s1,sp,532
 496:	0008                	0x8
 498:	7002                	flw	ft0,32(sp)
 49a:	44c1                	li	s1,16
 49c:	0cc8                	addi	a0,sp,596
 49e:	3002                	fld	ft0,32(sp)
 4a0:	0e44                	addi	s1,sp,788
 4a2:	0000                	unimp
 4a4:	0024                	addi	s1,sp,8
 4a6:	0000                	unimp
 4a8:	023c                	addi	a5,sp,264
 4aa:	0000                	unimp
 4ac:	0b18                	addi	a4,sp,400
 4ae:	2000                	fld	fs0,0(s0)
 4b0:	0038                	addi	a4,sp,8
 4b2:	0000                	unimp
 4b4:	0e44                	addi	s1,sp,788
 4b6:	4820                	lw	s0,80(s0)
 4b8:	0181                	addi	gp,gp,0
 4ba:	0288                	addi	a0,sp,320
 4bc:	0c44                	addi	s1,sp,532
 4be:	0008                	0x8
 4c0:	c15c                	sw	a5,4(a0)
 4c2:	c844                	sw	s1,20(s0)
 4c4:	020c                	addi	a1,sp,256
 4c6:	4420                	lw	s0,72(s0)
 4c8:	000e                	c.slli	zero,0x3
 4ca:	0000                	unimp
 4cc:	0024                	addi	s1,sp,8
 4ce:	0000                	unimp
 4d0:	023c                	addi	a5,sp,264
 4d2:	0000                	unimp
 4d4:	0b50                	addi	a2,sp,404
 4d6:	2000                	fld	fs0,0(s0)
 4d8:	0038                	addi	a4,sp,8
 4da:	0000                	unimp
 4dc:	0e44                	addi	s1,sp,788
 4de:	4820                	lw	s0,80(s0)
 4e0:	0181                	addi	gp,gp,0
 4e2:	0288                	addi	a0,sp,320
 4e4:	0c44                	addi	s1,sp,532
 4e6:	0008                	0x8
 4e8:	c15c                	sw	a5,4(a0)
 4ea:	c844                	sw	s1,20(s0)
 4ec:	020c                	addi	a1,sp,256
 4ee:	4420                	lw	s0,72(s0)
 4f0:	000e                	c.slli	zero,0x3
 4f2:	0000                	unimp
 4f4:	0024                	addi	s1,sp,8
 4f6:	0000                	unimp
 4f8:	023c                	addi	a5,sp,264
 4fa:	0000                	unimp
 4fc:	0b88                	addi	a0,sp,464
 4fe:	2000                	fld	fs0,0(s0)
 500:	0064                	addi	s1,sp,12
 502:	0000                	unimp
 504:	0e44                	addi	s1,sp,788
 506:	4820                	lw	s0,80(s0)
 508:	0181                	addi	gp,gp,0
 50a:	0288                	addi	a0,sp,320
 50c:	0c44                	addi	s1,sp,532
 50e:	0008                	0x8
 510:	4802                	lw	a6,0(sp)
 512:	44c1                	li	s1,16
 514:	0cc8                	addi	a0,sp,596
 516:	2002                	fld	ft0,0(sp)
 518:	0e44                	addi	s1,sp,788
 51a:	0000                	unimp
 51c:	000c                	0xc
 51e:	0000                	unimp
 520:	ffff                	0xffff
 522:	ffff                	0xffff
 524:	0001                	nop
 526:	7c01                	lui	s8,0xfffe0
 528:	0d01                	addi	s10,s10,0
 52a:	0002                	c.slli64	zero
 52c:	0020                	addi	s0,sp,8
 52e:	0000                	unimp
 530:	051c                	addi	a5,sp,640
 532:	0000                	unimp
 534:	0bec                	addi	a1,sp,476
 536:	2000                	fld	fs0,0(s0)
 538:	002c                	addi	a1,sp,8
 53a:	0000                	unimp
 53c:	0e44                	addi	s1,sp,788
 53e:	4420                	lw	s0,72(s0)
 540:	0188                	addi	a0,sp,192
 542:	0c44                	addi	s1,sp,532
 544:	0008                	0x8
 546:	c858                	sw	a4,20(s0)
 548:	020c                	addi	a1,sp,256
 54a:	4420                	lw	s0,72(s0)
 54c:	000e                	c.slli	zero,0x3
 54e:	0000                	unimp
 550:	0024                	addi	s1,sp,8
 552:	0000                	unimp
 554:	051c                	addi	a5,sp,640
 556:	0000                	unimp
 558:	0c18                	addi	a4,sp,528
 55a:	2000                	fld	fs0,0(s0)
 55c:	006c                	addi	a1,sp,12
 55e:	0000                	unimp
 560:	0e44                	addi	s1,sp,788
 562:	4830                	lw	a2,80(s0)
 564:	0181                	addi	gp,gp,0
 566:	0288                	addi	a0,sp,320
 568:	0c44                	addi	s1,sp,532
 56a:	0008                	0x8
 56c:	5002                	0x5002
 56e:	44c1                	li	s1,16
 570:	0cc8                	addi	a0,sp,596
 572:	3002                	fld	ft0,32(sp)
 574:	0e44                	addi	s1,sp,788
 576:	0000                	unimp
 578:	0024                	addi	s1,sp,8
 57a:	0000                	unimp
 57c:	051c                	addi	a5,sp,640
 57e:	0000                	unimp
 580:	0c84                	addi	s1,sp,592
 582:	2000                	fld	fs0,0(s0)
 584:	0038                	addi	a4,sp,8
 586:	0000                	unimp
 588:	0e44                	addi	s1,sp,788
 58a:	4820                	lw	s0,80(s0)
 58c:	0181                	addi	gp,gp,0
 58e:	0288                	addi	a0,sp,320
 590:	0c44                	addi	s1,sp,532
 592:	0008                	0x8
 594:	c15c                	sw	a5,4(a0)
 596:	c844                	sw	s1,20(s0)
 598:	020c                	addi	a1,sp,256
 59a:	4420                	lw	s0,72(s0)
 59c:	000e                	c.slli	zero,0x3
 59e:	0000                	unimp
 5a0:	0024                	addi	s1,sp,8
 5a2:	0000                	unimp
 5a4:	051c                	addi	a5,sp,640
 5a6:	0000                	unimp
 5a8:	0cbc                	addi	a5,sp,600
 5aa:	2000                	fld	fs0,0(s0)
 5ac:	0038                	addi	a4,sp,8
 5ae:	0000                	unimp
 5b0:	0e44                	addi	s1,sp,788
 5b2:	4820                	lw	s0,80(s0)
 5b4:	0181                	addi	gp,gp,0
 5b6:	0288                	addi	a0,sp,320
 5b8:	0c44                	addi	s1,sp,532
 5ba:	0008                	0x8
 5bc:	c15c                	sw	a5,4(a0)
 5be:	c844                	sw	s1,20(s0)
 5c0:	020c                	addi	a1,sp,256
 5c2:	4420                	lw	s0,72(s0)
 5c4:	000e                	c.slli	zero,0x3
 5c6:	0000                	unimp
 5c8:	0024                	addi	s1,sp,8
 5ca:	0000                	unimp
 5cc:	051c                	addi	a5,sp,640
 5ce:	0000                	unimp
 5d0:	0cf4                	addi	a3,sp,604
 5d2:	2000                	fld	fs0,0(s0)
 5d4:	0038                	addi	a4,sp,8
 5d6:	0000                	unimp
 5d8:	0e44                	addi	s1,sp,788
 5da:	4820                	lw	s0,80(s0)
 5dc:	0181                	addi	gp,gp,0
 5de:	0288                	addi	a0,sp,320
 5e0:	0c44                	addi	s1,sp,532
 5e2:	0008                	0x8
 5e4:	c15c                	sw	a5,4(a0)
 5e6:	c844                	sw	s1,20(s0)
 5e8:	020c                	addi	a1,sp,256
 5ea:	4420                	lw	s0,72(s0)
 5ec:	000e                	c.slli	zero,0x3
 5ee:	0000                	unimp
 5f0:	0024                	addi	s1,sp,8
 5f2:	0000                	unimp
 5f4:	051c                	addi	a5,sp,640
 5f6:	0000                	unimp
 5f8:	0d2c                	addi	a1,sp,664
 5fa:	2000                	fld	fs0,0(s0)
 5fc:	00b4                	addi	a3,sp,72
 5fe:	0000                	unimp
 600:	0e44                	addi	s1,sp,788
 602:	4830                	lw	a2,80(s0)
 604:	0181                	addi	gp,gp,0
 606:	0288                	addi	a0,sp,320
 608:	0c44                	addi	s1,sp,532
 60a:	0008                	0x8
 60c:	9802                	jalr	a6
 60e:	44c1                	li	s1,16
 610:	0cc8                	addi	a0,sp,596
 612:	3002                	fld	ft0,32(sp)
 614:	0e44                	addi	s1,sp,788
 616:	0000                	unimp
 618:	0024                	addi	s1,sp,8
 61a:	0000                	unimp
 61c:	051c                	addi	a5,sp,640
 61e:	0000                	unimp
 620:	0de0                	addi	s0,sp,732
 622:	2000                	fld	fs0,0(s0)
 624:	0068                	addi	a0,sp,12
 626:	0000                	unimp
 628:	0e44                	addi	s1,sp,788
 62a:	4830                	lw	a2,80(s0)
 62c:	0181                	addi	gp,gp,0
 62e:	0288                	addi	a0,sp,320
 630:	0c44                	addi	s1,sp,532
 632:	0008                	0x8
 634:	4c02                	lw	s8,0(sp)
 636:	44c1                	li	s1,16
 638:	0cc8                	addi	a0,sp,596
 63a:	3002                	fld	ft0,32(sp)
 63c:	0e44                	addi	s1,sp,788
 63e:	0000                	unimp
 640:	0024                	addi	s1,sp,8
 642:	0000                	unimp
 644:	051c                	addi	a5,sp,640
 646:	0000                	unimp
 648:	0e48                	addi	a0,sp,788
 64a:	2000                	fld	fs0,0(s0)
 64c:	004c                	addi	a1,sp,4
 64e:	0000                	unimp
 650:	0e44                	addi	s1,sp,788
 652:	4820                	lw	s0,80(s0)
 654:	0181                	addi	gp,gp,0
 656:	0288                	addi	a0,sp,320
 658:	0c44                	addi	s1,sp,532
 65a:	0008                	0x8
 65c:	c170                	sw	a2,68(a0)
 65e:	c844                	sw	s1,20(s0)
 660:	020c                	addi	a1,sp,256
 662:	4420                	lw	s0,72(s0)
 664:	000e                	c.slli	zero,0x3
 666:	0000                	unimp
 668:	0024                	addi	s1,sp,8
 66a:	0000                	unimp
 66c:	051c                	addi	a5,sp,640
 66e:	0000                	unimp
 670:	0e94                	addi	a3,sp,848
 672:	2000                	fld	fs0,0(s0)
 674:	0038                	addi	a4,sp,8
 676:	0000                	unimp
 678:	0e44                	addi	s1,sp,788
 67a:	4820                	lw	s0,80(s0)
 67c:	0181                	addi	gp,gp,0
 67e:	0288                	addi	a0,sp,320
 680:	0c44                	addi	s1,sp,532
 682:	0008                	0x8
 684:	c15c                	sw	a5,4(a0)
 686:	c844                	sw	s1,20(s0)
 688:	020c                	addi	a1,sp,256
 68a:	4420                	lw	s0,72(s0)
 68c:	000e                	c.slli	zero,0x3
 68e:	0000                	unimp
 690:	0024                	addi	s1,sp,8
 692:	0000                	unimp
 694:	051c                	addi	a5,sp,640
 696:	0000                	unimp
 698:	0ecc                	addi	a1,sp,852
 69a:	2000                	fld	fs0,0(s0)
 69c:	0034                	addi	a3,sp,8
 69e:	0000                	unimp
 6a0:	0e44                	addi	s1,sp,788
 6a2:	4810                	lw	a2,16(s0)
 6a4:	0181                	addi	gp,gp,0
 6a6:	0288                	addi	a0,sp,320
 6a8:	0c44                	addi	s1,sp,532
 6aa:	0008                	0x8
 6ac:	c158                	sw	a4,4(a0)
 6ae:	c844                	sw	s1,20(s0)
 6b0:	020c                	addi	a1,sp,256
 6b2:	4410                	lw	a2,8(s0)
 6b4:	000e                	c.slli	zero,0x3
 6b6:	0000                	unimp
 6b8:	0024                	addi	s1,sp,8
 6ba:	0000                	unimp
 6bc:	051c                	addi	a5,sp,640
 6be:	0000                	unimp
 6c0:	0f00                	addi	s0,sp,912
 6c2:	2000                	fld	fs0,0(s0)
 6c4:	0054                	addi	a3,sp,4
 6c6:	0000                	unimp
 6c8:	0e44                	addi	s1,sp,788
 6ca:	4830                	lw	a2,80(s0)
 6cc:	0181                	addi	gp,gp,0
 6ce:	0288                	addi	a0,sp,320
 6d0:	0c44                	addi	s1,sp,532
 6d2:	0008                	0x8
 6d4:	c178                	sw	a4,68(a0)
 6d6:	c844                	sw	s1,20(s0)
 6d8:	020c                	addi	a1,sp,256
 6da:	4430                	lw	a2,72(s0)
 6dc:	000e                	c.slli	zero,0x3
 6de:	0000                	unimp
 6e0:	0024                	addi	s1,sp,8
 6e2:	0000                	unimp
 6e4:	051c                	addi	a5,sp,640
 6e6:	0000                	unimp
 6e8:	0f54                	addi	a3,sp,916
 6ea:	2000                	fld	fs0,0(s0)
 6ec:	003c                	addi	a5,sp,8
 6ee:	0000                	unimp
 6f0:	0e44                	addi	s1,sp,788
 6f2:	4820                	lw	s0,80(s0)
 6f4:	0181                	addi	gp,gp,0
 6f6:	0288                	addi	a0,sp,320
 6f8:	0c44                	addi	s1,sp,532
 6fa:	0008                	0x8
 6fc:	c160                	sw	s0,68(a0)
 6fe:	c844                	sw	s1,20(s0)
 700:	020c                	addi	a1,sp,256
 702:	4420                	lw	s0,72(s0)
 704:	000e                	c.slli	zero,0x3
 706:	0000                	unimp
 708:	0024                	addi	s1,sp,8
 70a:	0000                	unimp
 70c:	051c                	addi	a5,sp,640
 70e:	0000                	unimp
 710:	0f90                	addi	a2,sp,976
 712:	2000                	fld	fs0,0(s0)
 714:	0038                	addi	a4,sp,8
 716:	0000                	unimp
 718:	0e44                	addi	s1,sp,788
 71a:	4820                	lw	s0,80(s0)
 71c:	0181                	addi	gp,gp,0
 71e:	0288                	addi	a0,sp,320
 720:	0c44                	addi	s1,sp,532
 722:	0008                	0x8
 724:	c15c                	sw	a5,4(a0)
 726:	c844                	sw	s1,20(s0)
 728:	020c                	addi	a1,sp,256
 72a:	4420                	lw	s0,72(s0)
 72c:	000e                	c.slli	zero,0x3
 72e:	0000                	unimp
 730:	0024                	addi	s1,sp,8
 732:	0000                	unimp
 734:	051c                	addi	a5,sp,640
 736:	0000                	unimp
 738:	0fc8                	addi	a0,sp,980
 73a:	2000                	fld	fs0,0(s0)
 73c:	0044                	addi	s1,sp,4
 73e:	0000                	unimp
 740:	0e44                	addi	s1,sp,788
 742:	4820                	lw	s0,80(s0)
 744:	0181                	addi	gp,gp,0
 746:	0288                	addi	a0,sp,320
 748:	0c44                	addi	s1,sp,532
 74a:	0008                	0x8
 74c:	c168                	sw	a0,68(a0)
 74e:	c844                	sw	s1,20(s0)
 750:	020c                	addi	a1,sp,256
 752:	4420                	lw	s0,72(s0)
 754:	000e                	c.slli	zero,0x3
 756:	0000                	unimp
 758:	000c                	0xc
 75a:	0000                	unimp
 75c:	ffff                	0xffff
 75e:	ffff                	0xffff
 760:	0001                	nop
 762:	7c01                	lui	s8,0xfffe0
 764:	0d01                	addi	s10,s10,0
 766:	0002                	c.slli64	zero
 768:	0018                	0x18
 76a:	0000                	unimp
 76c:	0758                	addi	a4,sp,900
 76e:	0000                	unimp
 770:	100c                	addi	a1,sp,32
 772:	2000                	fld	fs0,0(s0)
 774:	0058                	addi	a4,sp,4
 776:	0000                	unimp
 778:	0e44                	addi	s1,sp,788
 77a:	4810                	lw	a2,16(s0)
 77c:	0181                	addi	gp,gp,0
 77e:	0288                	addi	a0,sp,320
 780:	0c44                	addi	s1,sp,532
 782:	0008                	0x8
